

Microchip MPLAB XC8 Assembler V2.10 build 88905656 
                                                                                               Mon Sep 07 16:46:59 2020

Microchip MPLAB XC8 C Compiler v2.10 (Free license) build 20190730164152 Og1 
     1                           	processor	16F1786
     2                           	opt	pw 120
     3                           	opt	flic
     4                           	psect	idataCOMMON,global,class=CODE,delta=2
     5                           	psect	idataBANK0,global,class=CODE,delta=2
     6                           	psect	cinit,global,class=CODE,merge=1,delta=2
     7                           	psect	bssCOMMON,global,class=COMMON,space=1,delta=1
     8                           	psect	dataCOMMON,global,class=COMMON,space=1,delta=1
     9                           	psect	bssBANK0,global,class=BANK0,space=1,delta=1
    10                           	psect	dataBANK0,global,class=BANK0,space=1,delta=1
    11                           	psect	inittext,global,class=CODE,delta=2
    12                           	psect	cstackCOMMON,global,class=COMMON,space=1,delta=1
    13                           	psect	cstackBANK0,global,class=BANK0,space=1,delta=1
    14                           	psect	maintext,global,class=CODE,merge=1,split=1,delta=2
    15                           	psect	text1,local,class=CODE,merge=1,delta=2
    16                           	psect	text2,local,class=CODE,merge=1,delta=2
    17                           	psect	text3,local,class=CODE,merge=1,delta=2
    18                           	psect	intentry,global,class=CODE,delta=2
    19                           	psect	text5,local,class=CODE,merge=1,delta=2
    20                           	psect	text6,local,class=CODE,merge=1,delta=2,group=1
    21                           	psect	text7,local,class=CODE,merge=1,delta=2
    22                           	psect	text8,local,class=CODE,merge=1,delta=2
    23                           	psect	text9,local,class=CODE,merge=1,delta=2
    24                           	dabs	1,0x7E,2
    25  0000                     
    26                           ; Version 2.10
    27                           ; Generated 31/07/2019 GMT
    28                           ; 
    29                           ; Copyright © 2019, Microchip Technology Inc. and its subsidiaries ("Microchip")
    30                           ; All rights reserved.
    31                           ; 
    32                           ; This software is developed by Microchip Technology Inc. and its subsidiaries ("Microch
      +                          ip").
    33                           ; 
    34                           ; Redistribution and use in source and binary forms, with or without modification, are
    35                           ; permitted provided that the following conditions are met:
    36                           ; 
    37                           ;     1. Redistributions of source code must retain the above copyright notice, this lis
      +                          t of
    38                           ;        conditions and the following disclaimer.
    39                           ; 
    40                           ;     2. Redistributions in binary form must reproduce the above copyright notice, this 
      +                          list
    41                           ;        of conditions and the following disclaimer in the documentation and/or other
    42                           ;        materials provided with the distribution.
    43                           ; 
    44                           ;     3. Microchip's name may not be used to endorse or promote products derived from th
      +                          is
    45                           ;        software without specific prior written permission.
    46                           ; 
    47                           ; THIS SOFTWARE IS PROVIDED BY MICROCHIP "AS IS" AND ANY EXPRESS OR IMPLIED WARRANTIES,
    48                           ; INCLUDING, BUT NOT LIMITED TO, THE IMPLIED WARRANTIES OF MERCHANTABILITY AND FITNESS F
      +                          OR
    49                           ; PURPOSE ARE DISCLAIMED.  IN NO EVENT SHALL MICROCHIP BE LIABLE FOR ANY DIRECT, INDIREC
      +                          T,
    50                           ; INCIDENTAL, SPECIAL, EXEMPLARY, OR CONSEQUENTIAL DAMAGES (INCLUDING BUT NOT LIMITED TO
    51                           ; PROCUREMENT OF SUBSTITUTE GOODS OR SERVICES; LOSS OF USE, DATA OR PROFITS; OR BUSINESS
    52                           ; INTERRUPTION) HOWSOEVER CAUSED AND ON ANY THEORY OF LIABILITY, WHETHER IN CONTRACT, ST
      +                          RICT
    53                           ; LIABILITY, OR TORT (INCLUDING NEGLIGENCE OR OTHERWISE) ARISING IN ANY WAY OUT OF THE U
      +                          SE OF
    54                           ; THIS SOFTWARE, EVEN IF ADVISED OF THE POSSIBILITY OF SUCH DAMAGE.
    55                           ; 
    56                           ; 
    57                           ; Code-generator required, PIC16F1786 Definitions
    58                           ; 
    59                           ; SFR Addresses
    60  0000                     	;# 
    61  0001                     	;# 
    62  0002                     	;# 
    63  0003                     	;# 
    64  0004                     	;# 
    65  0005                     	;# 
    66  0006                     	;# 
    67  0007                     	;# 
    68  0008                     	;# 
    69  0009                     	;# 
    70  000A                     	;# 
    71  000B                     	;# 
    72  000C                     	;# 
    73  000D                     	;# 
    74  000E                     	;# 
    75  0010                     	;# 
    76  0011                     	;# 
    77  0012                     	;# 
    78  0013                     	;# 
    79  0014                     	;# 
    80  0015                     	;# 
    81  0016                     	;# 
    82  0016                     	;# 
    83  0017                     	;# 
    84  0018                     	;# 
    85  0019                     	;# 
    86  001A                     	;# 
    87  001B                     	;# 
    88  001C                     	;# 
    89  008C                     	;# 
    90  008D                     	;# 
    91  008E                     	;# 
    92  0090                     	;# 
    93  0091                     	;# 
    94  0092                     	;# 
    95  0093                     	;# 
    96  0094                     	;# 
    97  0095                     	;# 
    98  0096                     	;# 
    99  0097                     	;# 
   100  0098                     	;# 
   101  0099                     	;# 
   102  009A                     	;# 
   103  009B                     	;# 
   104  009B                     	;# 
   105  009C                     	;# 
   106  009D                     	;# 
   107  009E                     	;# 
   108  009F                     	;# 
   109  010C                     	;# 
   110  010D                     	;# 
   111  010E                     	;# 
   112  0111                     	;# 
   113  0112                     	;# 
   114  0113                     	;# 
   115  0114                     	;# 
   116  0115                     	;# 
   117  0116                     	;# 
   118  0117                     	;# 
   119  0118                     	;# 
   120  0119                     	;# 
   121  011A                     	;# 
   122  011B                     	;# 
   123  011C                     	;# 
   124  011D                     	;# 
   125  011D                     	;# 
   126  011D                     	;# 
   127  011E                     	;# 
   128  011F                     	;# 
   129  018C                     	;# 
   130  018D                     	;# 
   131  0191                     	;# 
   132  0191                     	;# 
   133  0192                     	;# 
   134  0193                     	;# 
   135  0193                     	;# 
   136  0193                     	;# 
   137  0194                     	;# 
   138  0195                     	;# 
   139  0196                     	;# 
   140  0197                     	;# 
   141  0199                     	;# 
   142  0199                     	;# 
   143  0199                     	;# 
   144  019A                     	;# 
   145  019A                     	;# 
   146  019A                     	;# 
   147  019B                     	;# 
   148  019B                     	;# 
   149  019B                     	;# 
   150  019B                     	;# 
   151  019B                     	;# 
   152  019C                     	;# 
   153  019C                     	;# 
   154  019C                     	;# 
   155  019D                     	;# 
   156  019D                     	;# 
   157  019D                     	;# 
   158  019E                     	;# 
   159  019E                     	;# 
   160  019E                     	;# 
   161  019F                     	;# 
   162  019F                     	;# 
   163  019F                     	;# 
   164  019F                     	;# 
   165  019F                     	;# 
   166  020C                     	;# 
   167  020D                     	;# 
   168  020E                     	;# 
   169  0210                     	;# 
   170  0211                     	;# 
   171  0211                     	;# 
   172  0212                     	;# 
   173  0212                     	;# 
   174  0213                     	;# 
   175  0213                     	;# 
   176  0214                     	;# 
   177  0214                     	;# 
   178  0215                     	;# 
   179  0215                     	;# 
   180  0215                     	;# 
   181  0215                     	;# 
   182  0216                     	;# 
   183  0216                     	;# 
   184  0217                     	;# 
   185  0217                     	;# 
   186  028C                     	;# 
   187  028D                     	;# 
   188  028E                     	;# 
   189  0291                     	;# 
   190  0291                     	;# 
   191  0292                     	;# 
   192  0293                     	;# 
   193  0298                     	;# 
   194  0298                     	;# 
   195  0299                     	;# 
   196  029A                     	;# 
   197  030C                     	;# 
   198  030D                     	;# 
   199  030E                     	;# 
   200  0311                     	;# 
   201  0311                     	;# 
   202  0312                     	;# 
   203  0313                     	;# 
   204  038C                     	;# 
   205  038D                     	;# 
   206  038E                     	;# 
   207  0390                     	;# 
   208  0391                     	;# 
   209  0392                     	;# 
   210  0393                     	;# 
   211  0394                     	;# 
   212  0395                     	;# 
   213  0396                     	;# 
   214  0397                     	;# 
   215  0398                     	;# 
   216  0399                     	;# 
   217  039D                     	;# 
   218  039E                     	;# 
   219  039F                     	;# 
   220  0511                     	;# 
   221  0513                     	;# 
   222  051A                     	;# 
   223  0811                     	;# 
   224  0812                     	;# 
   225  0813                     	;# 
   226  0814                     	;# 
   227  0815                     	;# 
   228  0816                     	;# 
   229  0817                     	;# 
   230  0818                     	;# 
   231  0819                     	;# 
   232  081A                     	;# 
   233  081B                     	;# 
   234  081C                     	;# 
   235  081D                     	;# 
   236  081E                     	;# 
   237  081F                     	;# 
   238  0820                     	;# 
   239  0821                     	;# 
   240  0821                     	;# 
   241  0822                     	;# 
   242  0823                     	;# 
   243  0823                     	;# 
   244  0824                     	;# 
   245  0825                     	;# 
   246  0825                     	;# 
   247  0826                     	;# 
   248  0827                     	;# 
   249  0827                     	;# 
   250  0828                     	;# 
   251  0829                     	;# 
   252  082A                     	;# 
   253  082B                     	;# 
   254  082C                     	;# 
   255  082D                     	;# 
   256  082E                     	;# 
   257  082F                     	;# 
   258  0831                     	;# 
   259  0832                     	;# 
   260  0833                     	;# 
   261  0834                     	;# 
   262  0835                     	;# 
   263  0836                     	;# 
   264  0837                     	;# 
   265  0838                     	;# 
   266  0839                     	;# 
   267  083A                     	;# 
   268  083B                     	;# 
   269  083C                     	;# 
   270  083D                     	;# 
   271  083E                     	;# 
   272  083F                     	;# 
   273  0840                     	;# 
   274  0841                     	;# 
   275  0841                     	;# 
   276  0842                     	;# 
   277  0843                     	;# 
   278  0843                     	;# 
   279  0844                     	;# 
   280  0845                     	;# 
   281  0845                     	;# 
   282  0846                     	;# 
   283  0847                     	;# 
   284  0847                     	;# 
   285  0848                     	;# 
   286  0849                     	;# 
   287  084A                     	;# 
   288  084B                     	;# 
   289  084C                     	;# 
   290  084D                     	;# 
   291  084E                     	;# 
   292  084F                     	;# 
   293  0851                     	;# 
   294  0852                     	;# 
   295  0853                     	;# 
   296  0854                     	;# 
   297  0855                     	;# 
   298  0856                     	;# 
   299  0857                     	;# 
   300  0858                     	;# 
   301  0859                     	;# 
   302  085A                     	;# 
   303  085B                     	;# 
   304  085C                     	;# 
   305  085D                     	;# 
   306  085E                     	;# 
   307  085F                     	;# 
   308  0860                     	;# 
   309  0861                     	;# 
   310  0861                     	;# 
   311  0862                     	;# 
   312  0863                     	;# 
   313  0863                     	;# 
   314  0864                     	;# 
   315  0865                     	;# 
   316  0865                     	;# 
   317  0866                     	;# 
   318  0867                     	;# 
   319  0867                     	;# 
   320  0868                     	;# 
   321  0869                     	;# 
   322  086A                     	;# 
   323  086B                     	;# 
   324  086C                     	;# 
   325  086D                     	;# 
   326  086E                     	;# 
   327  086F                     	;# 
   328  0FE4                     	;# 
   329  0FE5                     	;# 
   330  0FE6                     	;# 
   331  0FE7                     	;# 
   332  0FE8                     	;# 
   333  0FE9                     	;# 
   334  0FEA                     	;# 
   335  0FEB                     	;# 
   336  0FED                     	;# 
   337  0FEE                     	;# 
   338  0FEF                     	;# 
   339  0000                     	;# 
   340  0001                     	;# 
   341  0002                     	;# 
   342  0003                     	;# 
   343  0004                     	;# 
   344  0005                     	;# 
   345  0006                     	;# 
   346  0007                     	;# 
   347  0008                     	;# 
   348  0009                     	;# 
   349  000A                     	;# 
   350  000B                     	;# 
   351  000C                     	;# 
   352  000D                     	;# 
   353  000E                     	;# 
   354  0010                     	;# 
   355  0011                     	;# 
   356  0012                     	;# 
   357  0013                     	;# 
   358  0014                     	;# 
   359  0015                     	;# 
   360  0016                     	;# 
   361  0016                     	;# 
   362  0017                     	;# 
   363  0018                     	;# 
   364  0019                     	;# 
   365  001A                     	;# 
   366  001B                     	;# 
   367  001C                     	;# 
   368  008C                     	;# 
   369  008D                     	;# 
   370  008E                     	;# 
   371  0090                     	;# 
   372  0091                     	;# 
   373  0092                     	;# 
   374  0093                     	;# 
   375  0094                     	;# 
   376  0095                     	;# 
   377  0096                     	;# 
   378  0097                     	;# 
   379  0098                     	;# 
   380  0099                     	;# 
   381  009A                     	;# 
   382  009B                     	;# 
   383  009B                     	;# 
   384  009C                     	;# 
   385  009D                     	;# 
   386  009E                     	;# 
   387  009F                     	;# 
   388  010C                     	;# 
   389  010D                     	;# 
   390  010E                     	;# 
   391  0111                     	;# 
   392  0112                     	;# 
   393  0113                     	;# 
   394  0114                     	;# 
   395  0115                     	;# 
   396  0116                     	;# 
   397  0117                     	;# 
   398  0118                     	;# 
   399  0119                     	;# 
   400  011A                     	;# 
   401  011B                     	;# 
   402  011C                     	;# 
   403  011D                     	;# 
   404  011D                     	;# 
   405  011D                     	;# 
   406  011E                     	;# 
   407  011F                     	;# 
   408  018C                     	;# 
   409  018D                     	;# 
   410  0191                     	;# 
   411  0191                     	;# 
   412  0192                     	;# 
   413  0193                     	;# 
   414  0193                     	;# 
   415  0193                     	;# 
   416  0194                     	;# 
   417  0195                     	;# 
   418  0196                     	;# 
   419  0197                     	;# 
   420  0199                     	;# 
   421  0199                     	;# 
   422  0199                     	;# 
   423  019A                     	;# 
   424  019A                     	;# 
   425  019A                     	;# 
   426  019B                     	;# 
   427  019B                     	;# 
   428  019B                     	;# 
   429  019B                     	;# 
   430  019B                     	;# 
   431  019C                     	;# 
   432  019C                     	;# 
   433  019C                     	;# 
   434  019D                     	;# 
   435  019D                     	;# 
   436  019D                     	;# 
   437  019E                     	;# 
   438  019E                     	;# 
   439  019E                     	;# 
   440  019F                     	;# 
   441  019F                     	;# 
   442  019F                     	;# 
   443  019F                     	;# 
   444  019F                     	;# 
   445  020C                     	;# 
   446  020D                     	;# 
   447  020E                     	;# 
   448  0210                     	;# 
   449  0211                     	;# 
   450  0211                     	;# 
   451  0212                     	;# 
   452  0212                     	;# 
   453  0213                     	;# 
   454  0213                     	;# 
   455  0214                     	;# 
   456  0214                     	;# 
   457  0215                     	;# 
   458  0215                     	;# 
   459  0215                     	;# 
   460  0215                     	;# 
   461  0216                     	;# 
   462  0216                     	;# 
   463  0217                     	;# 
   464  0217                     	;# 
   465  028C                     	;# 
   466  028D                     	;# 
   467  028E                     	;# 
   468  0291                     	;# 
   469  0291                     	;# 
   470  0292                     	;# 
   471  0293                     	;# 
   472  0298                     	;# 
   473  0298                     	;# 
   474  0299                     	;# 
   475  029A                     	;# 
   476  030C                     	;# 
   477  030D                     	;# 
   478  030E                     	;# 
   479  0311                     	;# 
   480  0311                     	;# 
   481  0312                     	;# 
   482  0313                     	;# 
   483  038C                     	;# 
   484  038D                     	;# 
   485  038E                     	;# 
   486  0390                     	;# 
   487  0391                     	;# 
   488  0392                     	;# 
   489  0393                     	;# 
   490  0394                     	;# 
   491  0395                     	;# 
   492  0396                     	;# 
   493  0397                     	;# 
   494  0398                     	;# 
   495  0399                     	;# 
   496  039D                     	;# 
   497  039E                     	;# 
   498  039F                     	;# 
   499  0511                     	;# 
   500  0513                     	;# 
   501  051A                     	;# 
   502  0811                     	;# 
   503  0812                     	;# 
   504  0813                     	;# 
   505  0814                     	;# 
   506  0815                     	;# 
   507  0816                     	;# 
   508  0817                     	;# 
   509  0818                     	;# 
   510  0819                     	;# 
   511  081A                     	;# 
   512  081B                     	;# 
   513  081C                     	;# 
   514  081D                     	;# 
   515  081E                     	;# 
   516  081F                     	;# 
   517  0820                     	;# 
   518  0821                     	;# 
   519  0821                     	;# 
   520  0822                     	;# 
   521  0823                     	;# 
   522  0823                     	;# 
   523  0824                     	;# 
   524  0825                     	;# 
   525  0825                     	;# 
   526  0826                     	;# 
   527  0827                     	;# 
   528  0827                     	;# 
   529  0828                     	;# 
   530  0829                     	;# 
   531  082A                     	;# 
   532  082B                     	;# 
   533  082C                     	;# 
   534  082D                     	;# 
   535  082E                     	;# 
   536  082F                     	;# 
   537  0831                     	;# 
   538  0832                     	;# 
   539  0833                     	;# 
   540  0834                     	;# 
   541  0835                     	;# 
   542  0836                     	;# 
   543  0837                     	;# 
   544  0838                     	;# 
   545  0839                     	;# 
   546  083A                     	;# 
   547  083B                     	;# 
   548  083C                     	;# 
   549  083D                     	;# 
   550  083E                     	;# 
   551  083F                     	;# 
   552  0840                     	;# 
   553  0841                     	;# 
   554  0841                     	;# 
   555  0842                     	;# 
   556  0843                     	;# 
   557  0843                     	;# 
   558  0844                     	;# 
   559  0845                     	;# 
   560  0845                     	;# 
   561  0846                     	;# 
   562  0847                     	;# 
   563  0847                     	;# 
   564  0848                     	;# 
   565  0849                     	;# 
   566  084A                     	;# 
   567  084B                     	;# 
   568  084C                     	;# 
   569  084D                     	;# 
   570  084E                     	;# 
   571  084F                     	;# 
   572  0851                     	;# 
   573  0852                     	;# 
   574  0853                     	;# 
   575  0854                     	;# 
   576  0855                     	;# 
   577  0856                     	;# 
   578  0857                     	;# 
   579  0858                     	;# 
   580  0859                     	;# 
   581  085A                     	;# 
   582  085B                     	;# 
   583  085C                     	;# 
   584  085D                     	;# 
   585  085E                     	;# 
   586  085F                     	;# 
   587  0860                     	;# 
   588  0861                     	;# 
   589  0861                     	;# 
   590  0862                     	;# 
   591  0863                     	;# 
   592  0863                     	;# 
   593  0864                     	;# 
   594  0865                     	;# 
   595  0865                     	;# 
   596  0866                     	;# 
   597  0867                     	;# 
   598  0867                     	;# 
   599  0868                     	;# 
   600  0869                     	;# 
   601  086A                     	;# 
   602  086B                     	;# 
   603  086C                     	;# 
   604  086D                     	;# 
   605  086E                     	;# 
   606  086F                     	;# 
   607  0FE4                     	;# 
   608  0FE5                     	;# 
   609  0FE6                     	;# 
   610  0FE7                     	;# 
   611  0FE8                     	;# 
   612  0FE9                     	;# 
   613  0FEA                     	;# 
   614  0FEB                     	;# 
   615  0FED                     	;# 
   616  0FEE                     	;# 
   617  0FEF                     	;# 
   618  0000                     	;# 
   619  0001                     	;# 
   620  0002                     	;# 
   621  0003                     	;# 
   622  0004                     	;# 
   623  0005                     	;# 
   624  0006                     	;# 
   625  0007                     	;# 
   626  0008                     	;# 
   627  0009                     	;# 
   628  000A                     	;# 
   629  000B                     	;# 
   630  000C                     	;# 
   631  000D                     	;# 
   632  000E                     	;# 
   633  0010                     	;# 
   634  0011                     	;# 
   635  0012                     	;# 
   636  0013                     	;# 
   637  0014                     	;# 
   638  0015                     	;# 
   639  0016                     	;# 
   640  0016                     	;# 
   641  0017                     	;# 
   642  0018                     	;# 
   643  0019                     	;# 
   644  001A                     	;# 
   645  001B                     	;# 
   646  001C                     	;# 
   647  008C                     	;# 
   648  008D                     	;# 
   649  008E                     	;# 
   650  0090                     	;# 
   651  0091                     	;# 
   652  0092                     	;# 
   653  0093                     	;# 
   654  0094                     	;# 
   655  0095                     	;# 
   656  0096                     	;# 
   657  0097                     	;# 
   658  0098                     	;# 
   659  0099                     	;# 
   660  009A                     	;# 
   661  009B                     	;# 
   662  009B                     	;# 
   663  009C                     	;# 
   664  009D                     	;# 
   665  009E                     	;# 
   666  009F                     	;# 
   667  010C                     	;# 
   668  010D                     	;# 
   669  010E                     	;# 
   670  0111                     	;# 
   671  0112                     	;# 
   672  0113                     	;# 
   673  0114                     	;# 
   674  0115                     	;# 
   675  0116                     	;# 
   676  0117                     	;# 
   677  0118                     	;# 
   678  0119                     	;# 
   679  011A                     	;# 
   680  011B                     	;# 
   681  011C                     	;# 
   682  011D                     	;# 
   683  011D                     	;# 
   684  011D                     	;# 
   685  011E                     	;# 
   686  011F                     	;# 
   687  018C                     	;# 
   688  018D                     	;# 
   689  0191                     	;# 
   690  0191                     	;# 
   691  0192                     	;# 
   692  0193                     	;# 
   693  0193                     	;# 
   694  0193                     	;# 
   695  0194                     	;# 
   696  0195                     	;# 
   697  0196                     	;# 
   698  0197                     	;# 
   699  0199                     	;# 
   700  0199                     	;# 
   701  0199                     	;# 
   702  019A                     	;# 
   703  019A                     	;# 
   704  019A                     	;# 
   705  019B                     	;# 
   706  019B                     	;# 
   707  019B                     	;# 
   708  019B                     	;# 
   709  019B                     	;# 
   710  019C                     	;# 
   711  019C                     	;# 
   712  019C                     	;# 
   713  019D                     	;# 
   714  019D                     	;# 
   715  019D                     	;# 
   716  019E                     	;# 
   717  019E                     	;# 
   718  019E                     	;# 
   719  019F                     	;# 
   720  019F                     	;# 
   721  019F                     	;# 
   722  019F                     	;# 
   723  019F                     	;# 
   724  020C                     	;# 
   725  020D                     	;# 
   726  020E                     	;# 
   727  0210                     	;# 
   728  0211                     	;# 
   729  0211                     	;# 
   730  0212                     	;# 
   731  0212                     	;# 
   732  0213                     	;# 
   733  0213                     	;# 
   734  0214                     	;# 
   735  0214                     	;# 
   736  0215                     	;# 
   737  0215                     	;# 
   738  0215                     	;# 
   739  0215                     	;# 
   740  0216                     	;# 
   741  0216                     	;# 
   742  0217                     	;# 
   743  0217                     	;# 
   744  028C                     	;# 
   745  028D                     	;# 
   746  028E                     	;# 
   747  0291                     	;# 
   748  0291                     	;# 
   749  0292                     	;# 
   750  0293                     	;# 
   751  0298                     	;# 
   752  0298                     	;# 
   753  0299                     	;# 
   754  029A                     	;# 
   755  030C                     	;# 
   756  030D                     	;# 
   757  030E                     	;# 
   758  0311                     	;# 
   759  0311                     	;# 
   760  0312                     	;# 
   761  0313                     	;# 
   762  038C                     	;# 
   763  038D                     	;# 
   764  038E                     	;# 
   765  0390                     	;# 
   766  0391                     	;# 
   767  0392                     	;# 
   768  0393                     	;# 
   769  0394                     	;# 
   770  0395                     	;# 
   771  0396                     	;# 
   772  0397                     	;# 
   773  0398                     	;# 
   774  0399                     	;# 
   775  039D                     	;# 
   776  039E                     	;# 
   777  039F                     	;# 
   778  0511                     	;# 
   779  0513                     	;# 
   780  051A                     	;# 
   781  0811                     	;# 
   782  0812                     	;# 
   783  0813                     	;# 
   784  0814                     	;# 
   785  0815                     	;# 
   786  0816                     	;# 
   787  0817                     	;# 
   788  0818                     	;# 
   789  0819                     	;# 
   790  081A                     	;# 
   791  081B                     	;# 
   792  081C                     	;# 
   793  081D                     	;# 
   794  081E                     	;# 
   795  081F                     	;# 
   796  0820                     	;# 
   797  0821                     	;# 
   798  0821                     	;# 
   799  0822                     	;# 
   800  0823                     	;# 
   801  0823                     	;# 
   802  0824                     	;# 
   803  0825                     	;# 
   804  0825                     	;# 
   805  0826                     	;# 
   806  0827                     	;# 
   807  0827                     	;# 
   808  0828                     	;# 
   809  0829                     	;# 
   810  082A                     	;# 
   811  082B                     	;# 
   812  082C                     	;# 
   813  082D                     	;# 
   814  082E                     	;# 
   815  082F                     	;# 
   816  0831                     	;# 
   817  0832                     	;# 
   818  0833                     	;# 
   819  0834                     	;# 
   820  0835                     	;# 
   821  0836                     	;# 
   822  0837                     	;# 
   823  0838                     	;# 
   824  0839                     	;# 
   825  083A                     	;# 
   826  083B                     	;# 
   827  083C                     	;# 
   828  083D                     	;# 
   829  083E                     	;# 
   830  083F                     	;# 
   831  0840                     	;# 
   832  0841                     	;# 
   833  0841                     	;# 
   834  0842                     	;# 
   835  0843                     	;# 
   836  0843                     	;# 
   837  0844                     	;# 
   838  0845                     	;# 
   839  0845                     	;# 
   840  0846                     	;# 
   841  0847                     	;# 
   842  0847                     	;# 
   843  0848                     	;# 
   844  0849                     	;# 
   845  084A                     	;# 
   846  084B                     	;# 
   847  084C                     	;# 
   848  084D                     	;# 
   849  084E                     	;# 
   850  084F                     	;# 
   851  0851                     	;# 
   852  0852                     	;# 
   853  0853                     	;# 
   854  0854                     	;# 
   855  0855                     	;# 
   856  0856                     	;# 
   857  0857                     	;# 
   858  0858                     	;# 
   859  0859                     	;# 
   860  085A                     	;# 
   861  085B                     	;# 
   862  085C                     	;# 
   863  085D                     	;# 
   864  085E                     	;# 
   865  085F                     	;# 
   866  0860                     	;# 
   867  0861                     	;# 
   868  0861                     	;# 
   869  0862                     	;# 
   870  0863                     	;# 
   871  0863                     	;# 
   872  0864                     	;# 
   873  0865                     	;# 
   874  0865                     	;# 
   875  0866                     	;# 
   876  0867                     	;# 
   877  0867                     	;# 
   878  0868                     	;# 
   879  0869                     	;# 
   880  086A                     	;# 
   881  086B                     	;# 
   882  086C                     	;# 
   883  086D                     	;# 
   884  086E                     	;# 
   885  086F                     	;# 
   886  0FE4                     	;# 
   887  0FE5                     	;# 
   888  0FE6                     	;# 
   889  0FE7                     	;# 
   890  0FE8                     	;# 
   891  0FE9                     	;# 
   892  0FEA                     	;# 
   893  0FEB                     	;# 
   894  0FED                     	;# 
   895  0FEE                     	;# 
   896  0FEF                     	;# 
   897  0000                     	;# 
   898  0001                     	;# 
   899  0002                     	;# 
   900  0003                     	;# 
   901  0004                     	;# 
   902  0005                     	;# 
   903  0006                     	;# 
   904  0007                     	;# 
   905  0008                     	;# 
   906  0009                     	;# 
   907  000A                     	;# 
   908  000B                     	;# 
   909  000C                     	;# 
   910  000D                     	;# 
   911  000E                     	;# 
   912  0010                     	;# 
   913  0011                     	;# 
   914  0012                     	;# 
   915  0013                     	;# 
   916  0014                     	;# 
   917  0015                     	;# 
   918  0016                     	;# 
   919  0016                     	;# 
   920  0017                     	;# 
   921  0018                     	;# 
   922  0019                     	;# 
   923  001A                     	;# 
   924  001B                     	;# 
   925  001C                     	;# 
   926  008C                     	;# 
   927  008D                     	;# 
   928  008E                     	;# 
   929  0090                     	;# 
   930  0091                     	;# 
   931  0092                     	;# 
   932  0093                     	;# 
   933  0094                     	;# 
   934  0095                     	;# 
   935  0096                     	;# 
   936  0097                     	;# 
   937  0098                     	;# 
   938  0099                     	;# 
   939  009A                     	;# 
   940  009B                     	;# 
   941  009B                     	;# 
   942  009C                     	;# 
   943  009D                     	;# 
   944  009E                     	;# 
   945  009F                     	;# 
   946  010C                     	;# 
   947  010D                     	;# 
   948  010E                     	;# 
   949  0111                     	;# 
   950  0112                     	;# 
   951  0113                     	;# 
   952  0114                     	;# 
   953  0115                     	;# 
   954  0116                     	;# 
   955  0117                     	;# 
   956  0118                     	;# 
   957  0119                     	;# 
   958  011A                     	;# 
   959  011B                     	;# 
   960  011C                     	;# 
   961  011D                     	;# 
   962  011D                     	;# 
   963  011D                     	;# 
   964  011E                     	;# 
   965  011F                     	;# 
   966  018C                     	;# 
   967  018D                     	;# 
   968  0191                     	;# 
   969  0191                     	;# 
   970  0192                     	;# 
   971  0193                     	;# 
   972  0193                     	;# 
   973  0193                     	;# 
   974  0194                     	;# 
   975  0195                     	;# 
   976  0196                     	;# 
   977  0197                     	;# 
   978  0199                     	;# 
   979  0199                     	;# 
   980  0199                     	;# 
   981  019A                     	;# 
   982  019A                     	;# 
   983  019A                     	;# 
   984  019B                     	;# 
   985  019B                     	;# 
   986  019B                     	;# 
   987  019B                     	;# 
   988  019B                     	;# 
   989  019C                     	;# 
   990  019C                     	;# 
   991  019C                     	;# 
   992  019D                     	;# 
   993  019D                     	;# 
   994  019D                     	;# 
   995  019E                     	;# 
   996  019E                     	;# 
   997  019E                     	;# 
   998  019F                     	;# 
   999  019F                     	;# 
  1000  019F                     	;# 
  1001  019F                     	;# 
  1002  019F                     	;# 
  1003  020C                     	;# 
  1004  020D                     	;# 
  1005  020E                     	;# 
  1006  0210                     	;# 
  1007  0211                     	;# 
  1008  0211                     	;# 
  1009  0212                     	;# 
  1010  0212                     	;# 
  1011  0213                     	;# 
  1012  0213                     	;# 
  1013  0214                     	;# 
  1014  0214                     	;# 
  1015  0215                     	;# 
  1016  0215                     	;# 
  1017  0215                     	;# 
  1018  0215                     	;# 
  1019  0216                     	;# 
  1020  0216                     	;# 
  1021  0217                     	;# 
  1022  0217                     	;# 
  1023  028C                     	;# 
  1024  028D                     	;# 
  1025  028E                     	;# 
  1026  0291                     	;# 
  1027  0291                     	;# 
  1028  0292                     	;# 
  1029  0293                     	;# 
  1030  0298                     	;# 
  1031  0298                     	;# 
  1032  0299                     	;# 
  1033  029A                     	;# 
  1034  030C                     	;# 
  1035  030D                     	;# 
  1036  030E                     	;# 
  1037  0311                     	;# 
  1038  0311                     	;# 
  1039  0312                     	;# 
  1040  0313                     	;# 
  1041  038C                     	;# 
  1042  038D                     	;# 
  1043  038E                     	;# 
  1044  0390                     	;# 
  1045  0391                     	;# 
  1046  0392                     	;# 
  1047  0393                     	;# 
  1048  0394                     	;# 
  1049  0395                     	;# 
  1050  0396                     	;# 
  1051  0397                     	;# 
  1052  0398                     	;# 
  1053  0399                     	;# 
  1054  039D                     	;# 
  1055  039E                     	;# 
  1056  039F                     	;# 
  1057  0511                     	;# 
  1058  0513                     	;# 
  1059  051A                     	;# 
  1060  0811                     	;# 
  1061  0812                     	;# 
  1062  0813                     	;# 
  1063  0814                     	;# 
  1064  0815                     	;# 
  1065  0816                     	;# 
  1066  0817                     	;# 
  1067  0818                     	;# 
  1068  0819                     	;# 
  1069  081A                     	;# 
  1070  081B                     	;# 
  1071  081C                     	;# 
  1072  081D                     	;# 
  1073  081E                     	;# 
  1074  081F                     	;# 
  1075  0820                     	;# 
  1076  0821                     	;# 
  1077  0821                     	;# 
  1078  0822                     	;# 
  1079  0823                     	;# 
  1080  0823                     	;# 
  1081  0824                     	;# 
  1082  0825                     	;# 
  1083  0825                     	;# 
  1084  0826                     	;# 
  1085  0827                     	;# 
  1086  0827                     	;# 
  1087  0828                     	;# 
  1088  0829                     	;# 
  1089  082A                     	;# 
  1090  082B                     	;# 
  1091  082C                     	;# 
  1092  082D                     	;# 
  1093  082E                     	;# 
  1094  082F                     	;# 
  1095  0831                     	;# 
  1096  0832                     	;# 
  1097  0833                     	;# 
  1098  0834                     	;# 
  1099  0835                     	;# 
  1100  0836                     	;# 
  1101  0837                     	;# 
  1102  0838                     	;# 
  1103  0839                     	;# 
  1104  083A                     	;# 
  1105  083B                     	;# 
  1106  083C                     	;# 
  1107  083D                     	;# 
  1108  083E                     	;# 
  1109  083F                     	;# 
  1110  0840                     	;# 
  1111  0841                     	;# 
  1112  0841                     	;# 
  1113  0842                     	;# 
  1114  0843                     	;# 
  1115  0843                     	;# 
  1116  0844                     	;# 
  1117  0845                     	;# 
  1118  0845                     	;# 
  1119  0846                     	;# 
  1120  0847                     	;# 
  1121  0847                     	;# 
  1122  0848                     	;# 
  1123  0849                     	;# 
  1124  084A                     	;# 
  1125  084B                     	;# 
  1126  084C                     	;# 
  1127  084D                     	;# 
  1128  084E                     	;# 
  1129  084F                     	;# 
  1130  0851                     	;# 
  1131  0852                     	;# 
  1132  0853                     	;# 
  1133  0854                     	;# 
  1134  0855                     	;# 
  1135  0856                     	;# 
  1136  0857                     	;# 
  1137  0858                     	;# 
  1138  0859                     	;# 
  1139  085A                     	;# 
  1140  085B                     	;# 
  1141  085C                     	;# 
  1142  085D                     	;# 
  1143  085E                     	;# 
  1144  085F                     	;# 
  1145  0860                     	;# 
  1146  0861                     	;# 
  1147  0861                     	;# 
  1148  0862                     	;# 
  1149  0863                     	;# 
  1150  0863                     	;# 
  1151  0864                     	;# 
  1152  0865                     	;# 
  1153  0865                     	;# 
  1154  0866                     	;# 
  1155  0867                     	;# 
  1156  0867                     	;# 
  1157  0868                     	;# 
  1158  0869                     	;# 
  1159  086A                     	;# 
  1160  086B                     	;# 
  1161  086C                     	;# 
  1162  086D                     	;# 
  1163  086E                     	;# 
  1164  086F                     	;# 
  1165  0FE4                     	;# 
  1166  0FE5                     	;# 
  1167  0FE6                     	;# 
  1168  0FE7                     	;# 
  1169  0FE8                     	;# 
  1170  0FE9                     	;# 
  1171  0FEA                     	;# 
  1172  0FEB                     	;# 
  1173  0FED                     	;# 
  1174  0FEE                     	;# 
  1175  0FEF                     	;# 
  1176                           
  1177                           	psect	idataCOMMON
  1178  01AD                     __pidataCOMMON:	
  1179                           
  1180                           ;initializer for _count
  1181  01AD  343C               	retlw	60
  1182                           
  1183                           	psect	idataBANK0
  1184  0179                     __pidataBANK0:	
  1185                           
  1186                           ;initializer for _voice
  1187  0179  342B               	retlw	43
  1188  017A  3400               	retlw	0
  1189  017B  3428               	retlw	40
  1190  017C  3400               	retlw	0
  1191  017D  3426               	retlw	38
  1192  017E  3400               	retlw	0
  1193  017F  3424               	retlw	36
  1194  0180  3400               	retlw	0
  1195  0181  3422               	retlw	34
  1196  0182  3400               	retlw	0
  1197  0183  3420               	retlw	32
  1198  0184  3400               	retlw	0
  1199  0185  341E               	retlw	30
  1200  0186  3400               	retlw	0
  1201  0187  341D               	retlw	29
  1202  0188  3400               	retlw	0
  1203  0189  341B               	retlw	27
  1204  018A  3400               	retlw	0
  1205  018B  3419               	retlw	25
  1206  018C  3400               	retlw	0
  1207  000B                     _INTCONbits	set	11
  1208  000E                     _PORTC	set	14
  1209  000D                     _PORTB	set	13
  1210  000C                     _PORTA	set	12
  1211  0011                     _PIR1	set	17
  1212  0018                     _T1CON	set	24
  1213  0018                     _T1CONbits	set	24
  1214  001A                     _TMR2	set	26
  1215  0016                     _TMR1L	set	22
  1216  0017                     _TMR1H	set	23
  1217  0011                     _PIR1bits	set	17
  1218  005E                     _PEIE	set	94
  1219  005F                     _GIE	set	95
  1220  0099                     _OSCCONbits	set	153
  1221  008E                     _TRISC	set	142
  1222  0095                     _OPTION_REGbits	set	149
  1223  0091                     _PIE1bits	set	145
  1224  0091                     _PIE1	set	145
  1225  008E                     _TRISCbits	set	142
  1226  008C                     _TRISA	set	140
  1227  008D                     _TRISB	set	141
  1228  0099                     _OSCCON	set	153
  1229  010E                     _LATC	set	270
  1230  010D                     _LATB	set	269
  1231  010C                     _LATA	set	268
  1232  010D                     _LATBbits	set	269
  1233  018D                     _ANSELB	set	397
  1234  018C                     _ANSELA	set	396
  1235  0215                     _SSPCON1bits	set	533
  1236  0215                     _SSPCON1	set	533
  1237  0212                     _SSPADD	set	530
  1238  0214                     _SSPSTAT	set	532
  1239  0216                     _SSPCON2bits	set	534
  1240  0211                     _SSP1BUF	set	529
  1241  0215                     _SSPCONbits	set	533
  1242  0214                     _SSPSTATbits	set	532
  1243                           
  1244                           	psect	cinit
  1245  003B                     start_initialization:	
  1246                           ; #config settings
  1247                           
  1248  003B                     __initialization:	
  1249                           
  1250                           ; Initialize objects allocated to COMMON
  1251  003B  3181  21AD  3180   	fcall	__pidataCOMMON	;fetch initializer
  1252  003E  00FC               	movwf	__pdataCOMMON& (0+127)
  1253                           
  1254                           ; Initialize objects allocated to BANK0
  1255  003F  3079               	movlw	low __pidataBANK0
  1256  0040  0084               	movwf	4
  1257  0041  3081               	movlw	(high __pidataBANK0)| (0+128)
  1258  0042  0085               	movwf	5
  1259  0043  3020               	movlw	low __pdataBANK0
  1260  0044  0086               	movwf	6
  1261  0045  3000               	movlw	high __pdataBANK0
  1262  0046  0087               	movwf	7
  1263  0047  3014               	movlw	20
  1264  0048  3181  21A4  3180   	fcall	init_ram
  1265                           
  1266                           ; Clear objects allocated to COMMON
  1267  004B  01FA               	clrf	__pbssCOMMON& (0+127)
  1268  004C  01FB               	clrf	(__pbssCOMMON+1)& (0+127)
  1269                           
  1270                           ; Clear objects allocated to BANK0
  1271  004D  01B4               	clrf	__pbssBANK0& (0+127)
  1272  004E  01B5               	clrf	(__pbssBANK0+1)& (0+127)
  1273  004F  01B6               	clrf	(__pbssBANK0+2)& (0+127)
  1274  0050  01B7               	clrf	(__pbssBANK0+3)& (0+127)
  1275  0051  01B8               	clrf	(__pbssBANK0+4)& (0+127)
  1276  0052  01B9               	clrf	(__pbssBANK0+5)& (0+127)
  1277  0053                     end_of_initialization:	
  1278                           ;End of C runtime variable initialization code
  1279                           
  1280  0053                     __end_of__initialization:	
  1281  0053  107E               	bcf	int$flags,0	;clear compiler interrupt flag (level 1)
  1282  0054  0020               	movlb	0
  1283  0055  3181  2960         	ljmp	_main	;jump to C main() function
  1284                           
  1285                           	psect	bssCOMMON
  1286  007A                     __pbssCOMMON:	
  1287  007A                     _IICAddr:	
  1288  007A                     	ds	1
  1289  007B                     _recvData:	
  1290  007B                     	ds	1
  1291                           
  1292                           	psect	dataCOMMON
  1293  007C                     __pdataCOMMON:	
  1294  007C                     _count:	
  1295  007C                     	ds	1
  1296                           
  1297                           	psect	bssBANK0
  1298  0034                     __pbssBANK0:	
  1299  0034                     _idx:	
  1300  0034                     	ds	2
  1301  0036                     _cnt_2:	
  1302  0036                     	ds	2
  1303  0038                     _cnt_1:	
  1304  0038                     	ds	2
  1305                           
  1306                           	psect	dataBANK0
  1307  0020                     __pdataBANK0:	
  1308  0020                     _voice:	
  1309  0020                     	ds	20
  1310                           
  1311                           	psect	inittext
  1312  01A4                     init_ram:	
  1313  01A4  00FE               	movwf	btemp
  1314  01A5                     initloop:	
  1315  01A5  0012               	moviw fsr0++
  1316  01A6  001E               	movwi fsr1++
  1317  01A7  0BFE               	decfsz	btemp,f
  1318  01A8  29A5               	goto	initloop
  1319  01A9  3400               	retlw	0
  1320                           
  1321                           	psect	cstackCOMMON
  1322  0070                     __pcstackCOMMON:	
  1323  0070                     ?_i2c_isr:	
  1324  0070                     ?_iicPeripheralInterruptRx:	
  1325                           ; 1 bytes @ 0x0
  1326                           
  1327  0070                     ??_iicPeripheralInterruptRx:	
  1328                           ; 1 bytes @ 0x0
  1329                           
  1330  0070                     ?_iicPeripheralInterruptTx:	
  1331                           ; 1 bytes @ 0x0
  1332                           
  1333  0070                     ?_Init:	
  1334                           ; 1 bytes @ 0x0
  1335                           
  1336  0070                     ?_Enable_INT:	
  1337                           ; 1 bytes @ 0x0
  1338                           
  1339  0070                     ?_Pull_Up:	
  1340                           ; 1 bytes @ 0x0
  1341                           
  1342  0070                     ?_irs_routine:	
  1343                           ; 1 bytes @ 0x0
  1344                           
  1345  0070                     ?_main:	
  1346                           ; 1 bytes @ 0x0
  1347                           
  1348  0070                     ?___lwmod:	
  1349                           ; 1 bytes @ 0x0
  1350                           
  1351  0070                     iicPeripheralInterruptTx@data:	
  1352                           ; 2 bytes @ 0x0
  1353                           
  1354  0070                     ___lwmod@divisor:	
  1355                           ; 2 bytes @ 0x0
  1356                           
  1357                           
  1358                           ; 2 bytes @ 0x0
  1359  0070                     	ds	2
  1360  0072                     iicPeripheralInterruptTx@size:	
  1361  0072                     iicPeripheralInterruptRx@data:	
  1362                           ; 1 bytes @ 0x2
  1363                           
  1364  0072                     ___lwmod@dividend:	
  1365                           ; 1 bytes @ 0x2
  1366                           
  1367                           
  1368                           ; 2 bytes @ 0x2
  1369  0072                     	ds	1
  1370  0073                     ??_iicPeripheralInterruptTx:	
  1371                           
  1372                           ; 1 bytes @ 0x3
  1373  0073                     	ds	1
  1374  0074                     ??___lwmod:	
  1375                           
  1376                           ; 1 bytes @ 0x4
  1377  0074                     	ds	1
  1378  0075                     ___lwmod@counter:	
  1379                           
  1380                           ; 1 bytes @ 0x5
  1381  0075                     	ds	1
  1382  0076                     ?_sound:	
  1383  0076                     sound@gate1:	
  1384                           ; 1 bytes @ 0x6
  1385                           
  1386                           
  1387                           ; 2 bytes @ 0x6
  1388  0076                     	ds	1
  1389  0077                     iicPeripheralInterruptTx@i:	
  1390                           
  1391                           ; 1 bytes @ 0x7
  1392  0077                     	ds	1
  1393  0078                     ??_sound:	
  1394  0078                     ??_i2c_isr:	
  1395                           ; 1 bytes @ 0x8
  1396                           
  1397                           
  1398                           ; 1 bytes @ 0x8
  1399  0078                     	ds	2
  1400  007A                     ??_irs_routine:	
  1401                           
  1402                           	psect	cstackBANK0
  1403  0000                     __pcstackBANK0:	
  1404                           ; 1 bytes @ 0xA
  1405                           
  1406  0000                     ??_Init:	
  1407  0000                     ??_Enable_INT:	
  1408                           ; 1 bytes @ 0x0
  1409                           
  1410  0000                     ??_Pull_Up:	
  1411                           ; 1 bytes @ 0x0
  1412                           
  1413  0000                     ??_main:	
  1414                           ; 1 bytes @ 0x0
  1415                           
  1416                           
  1417                           	psect	maintext
  1418  0160                     __pmaintext:	
  1419                           ; 1 bytes @ 0x0
  1420 ;;
  1421 ;;Main: autosize = 0, tempsize = 0, incstack = 0, save=0
  1422 ;;
  1423 ;; *************** function _main *****************
  1424 ;; Defined at:
  1425 ;;		line 80 in file "main.c"
  1426 ;; Parameters:    Size  Location     Type
  1427 ;;		None
  1428 ;; Auto vars:     Size  Location     Type
  1429 ;;		None
  1430 ;; Return value:  Size  Location     Type
  1431 ;;                  1    wreg      void 
  1432 ;; Registers used:
  1433 ;;		wreg, status,2, status,0, pclath, cstack
  1434 ;; Tracked objects:
  1435 ;;		On entry : B1F/0
  1436 ;;		On exit  : 0/0
  1437 ;;		Unchanged: 0/0
  1438 ;; Data sizes:     COMMON   BANK0   BANK1   BANK2   BANK3   BANK4   BANK5   BANK6   BANK7   BANK8   BANK9  BANK10  BANK1
      +1  BANK12
  1439 ;;      Params:         0       0       0       0       0       0       0       0       0       0       0       0       
      +0       0
  1440 ;;      Locals:         0       0       0       0       0       0       0       0       0       0       0       0       
      +0       0
  1441 ;;      Temps:          0       0       0       0       0       0       0       0       0       0       0       0       
      +0       0
  1442 ;;      Totals:         0       0       0       0       0       0       0       0       0       0       0       0       
      +0       0
  1443 ;;Total ram usage:        0 bytes
  1444 ;; Hardware stack levels required when called:    4
  1445 ;; This function calls:
  1446 ;;		_Enable_INT
  1447 ;;		_Init
  1448 ;;		_Pull_Up
  1449 ;; This function is called by:
  1450 ;;		Startup code after reset
  1451 ;; This function uses a non-reentrant model
  1452 ;;
  1453                           
  1454                           
  1455                           ;psect for function _main
  1456  0160                     _main:	
  1457  0160                     l1199:	
  1458                           ;incstack = 0
  1459                           ; Regs used in _main: [wreg+status,2+status,0+pclath+cstack]
  1460                           
  1461                           
  1462                           ;main.c: 81: OSCCON = 0b01101011;
  1463  0160  306B               	movlw	107
  1464  0161  0021               	movlb	1	; select bank1
  1465  0162  0099               	movwf	25	;volatile
  1466  0163                     l1201:	
  1467                           
  1468                           ;main.c: 82: Init();
  1469  0163  3181  218D  3181   	fcall	_Init
  1470                           
  1471                           ;main.c: 83: Enable_INT();
  1472  0166  3181  219C  3181   	fcall	_Enable_INT
  1473                           
  1474                           ;main.c: 84: Pull_Up();
  1475  0169  3181  21AA  3181   	fcall	_Pull_Up
  1476  016C                     l1203:	
  1477                           
  1478                           ;main.c: 90: TRISB = 0b11111100;
  1479  016C  30FC               	movlw	252
  1480  016D  0021               	movlb	1	; select bank1
  1481  016E  008D               	movwf	13	;volatile
  1482  016F                     l1205:	
  1483                           
  1484                           ;main.c: 91: LATBbits.LATB0 = 0;
  1485  016F  0022               	movlb	2	; select bank2
  1486  0170  100D               	bcf	13,0	;volatile
  1487  0171                     l1207:	
  1488                           
  1489                           ;main.c: 94: TMR1H = 0xff;
  1490  0171  30FF               	movlw	255
  1491  0172  0020               	movlb	0	; select bank0
  1492  0173  0097               	movwf	23	;volatile
  1493  0174                     l1209:	
  1494                           
  1495                           ;main.c: 95: TMR1L = 0xf0;
  1496  0174  30F0               	movlw	240
  1497  0175  0096               	movwf	22	;volatile
  1498  0176                     l1211:	
  1499                           
  1500                           ;main.c: 96: T1CONbits.TMR1ON = 1;
  1501  0176  1418               	bsf	24,0	;volatile
  1502  0177                     l90:	
  1503  0177  3180  2839         	ljmp	start
  1504  0179                     __end_of_main:	
  1505                           
  1506                           	psect	text1
  1507  01AA                     __ptext1:	
  1508 ;; *************** function _Pull_Up *****************
  1509 ;; Defined at:
  1510 ;;		line 146 in file "main.c"
  1511 ;; Parameters:    Size  Location     Type
  1512 ;;		None
  1513 ;; Auto vars:     Size  Location     Type
  1514 ;;		None
  1515 ;; Return value:  Size  Location     Type
  1516 ;;                  1    wreg      void 
  1517 ;; Registers used:
  1518 ;;		None
  1519 ;; Tracked objects:
  1520 ;;		On entry : 0/0
  1521 ;;		On exit  : 0/0
  1522 ;;		Unchanged: 0/0
  1523 ;; Data sizes:     COMMON   BANK0   BANK1   BANK2   BANK3   BANK4   BANK5   BANK6   BANK7   BANK8   BANK9  BANK10  BANK1
      +1  BANK12
  1524 ;;      Params:         0       0       0       0       0       0       0       0       0       0       0       0       
      +0       0
  1525 ;;      Locals:         0       0       0       0       0       0       0       0       0       0       0       0       
      +0       0
  1526 ;;      Temps:          0       0       0       0       0       0       0       0       0       0       0       0       
      +0       0
  1527 ;;      Totals:         0       0       0       0       0       0       0       0       0       0       0       0       
      +0       0
  1528 ;;Total ram usage:        0 bytes
  1529 ;; Hardware stack levels used:    1
  1530 ;; Hardware stack levels required when called:    3
  1531 ;; This function calls:
  1532 ;;		Nothing
  1533 ;; This function is called by:
  1534 ;;		_main
  1535 ;; This function uses a non-reentrant model
  1536 ;;
  1537                           
  1538                           
  1539                           ;psect for function _Pull_Up
  1540  01AA                     _Pull_Up:	
  1541  01AA                     l1173:	
  1542                           ;incstack = 0
  1543                           ; Regs used in _Pull_Up: []
  1544                           
  1545                           
  1546                           ;main.c: 148: OPTION_REGbits.nWPUEN = 0;
  1547  01AA  0021               	movlb	1	; select bank1
  1548  01AB  1395               	bcf	21,7	;volatile
  1549  01AC                     l105:	
  1550                           ;main.c: 149: return;
  1551                           
  1552  01AC  0008               	return
  1553  01AD                     __end_of_Pull_Up:	
  1554                           
  1555                           	psect	text2
  1556  018D                     __ptext2:	
  1557 ;; *************** function _Init *****************
  1558 ;; Defined at:
  1559 ;;		line 116 in file "main.c"
  1560 ;; Parameters:    Size  Location     Type
  1561 ;;		None
  1562 ;; Auto vars:     Size  Location     Type
  1563 ;;		None
  1564 ;; Return value:  Size  Location     Type
  1565 ;;                  1    wreg      void 
  1566 ;; Registers used:
  1567 ;;		wreg, status,2
  1568 ;; Tracked objects:
  1569 ;;		On entry : 0/0
  1570 ;;		On exit  : 0/0
  1571 ;;		Unchanged: 0/0
  1572 ;; Data sizes:     COMMON   BANK0   BANK1   BANK2   BANK3   BANK4   BANK5   BANK6   BANK7   BANK8   BANK9  BANK10  BANK1
      +1  BANK12
  1573 ;;      Params:         0       0       0       0       0       0       0       0       0       0       0       0       
      +0       0
  1574 ;;      Locals:         0       0       0       0       0       0       0       0       0       0       0       0       
      +0       0
  1575 ;;      Temps:          0       0       0       0       0       0       0       0       0       0       0       0       
      +0       0
  1576 ;;      Totals:         0       0       0       0       0       0       0       0       0       0       0       0       
      +0       0
  1577 ;;Total ram usage:        0 bytes
  1578 ;; Hardware stack levels used:    1
  1579 ;; Hardware stack levels required when called:    3
  1580 ;; This function calls:
  1581 ;;		Nothing
  1582 ;; This function is called by:
  1583 ;;		_main
  1584 ;; This function uses a non-reentrant model
  1585 ;;
  1586                           
  1587                           
  1588                           ;psect for function _Init
  1589  018D                     _Init:	
  1590  018D                     l1155:	
  1591                           ;incstack = 0
  1592                           ; Regs used in _Init: [wreg+status,2]
  1593                           
  1594                           
  1595                           ;main.c: 119: TRISA = 0;
  1596  018D  0021               	movlb	1	; select bank1
  1597  018E  018C               	clrf	12	;volatile
  1598                           
  1599                           ;main.c: 120: ANSELA = 0;
  1600  018F  0023               	movlb	3	; select bank3
  1601  0190  018C               	clrf	12	;volatile
  1602                           
  1603                           ;main.c: 122: TRISB = 0;
  1604  0191  0021               	movlb	1	; select bank1
  1605  0192  018D               	clrf	13	;volatile
  1606                           
  1607                           ;main.c: 123: ANSELB = 0;
  1608  0193  0023               	movlb	3	; select bank3
  1609  0194  018D               	clrf	13	;volatile
  1610  0195                     l1157:	
  1611                           
  1612                           ;main.c: 125: TRISCbits.TRISC3 = 0;
  1613  0195  0021               	movlb	1	; select bank1
  1614  0196  118E               	bcf	14,3	;volatile
  1615  0197                     l1159:	
  1616                           
  1617                           ;main.c: 126: TRISCbits.TRISC4 = 0;
  1618  0197  120E               	bcf	14,4	;volatile
  1619  0198                     l1161:	
  1620                           
  1621                           ;main.c: 128: T1CON = 0b01000000;
  1622  0198  3040               	movlw	64
  1623  0199  0020               	movlb	0	; select bank0
  1624  019A  0098               	movwf	24	;volatile
  1625  019B                     l99:	
  1626  019B  0008               	return
  1627  019C                     __end_of_Init:	
  1628                           
  1629                           	psect	text3
  1630  019C                     __ptext3:	
  1631 ;; *************** function _Enable_INT *****************
  1632 ;; Defined at:
  1633 ;;		line 134 in file "main.c"
  1634 ;; Parameters:    Size  Location     Type
  1635 ;;		None
  1636 ;; Auto vars:     Size  Location     Type
  1637 ;;		None
  1638 ;; Return value:  Size  Location     Type
  1639 ;;                  1    wreg      void 
  1640 ;; Registers used:
  1641 ;;		status,2
  1642 ;; Tracked objects:
  1643 ;;		On entry : 0/0
  1644 ;;		On exit  : 0/0
  1645 ;;		Unchanged: 0/0
  1646 ;; Data sizes:     COMMON   BANK0   BANK1   BANK2   BANK3   BANK4   BANK5   BANK6   BANK7   BANK8   BANK9  BANK10  BANK1
      +1  BANK12
  1647 ;;      Params:         0       0       0       0       0       0       0       0       0       0       0       0       
      +0       0
  1648 ;;      Locals:         0       0       0       0       0       0       0       0       0       0       0       0       
      +0       0
  1649 ;;      Temps:          0       0       0       0       0       0       0       0       0       0       0       0       
      +0       0
  1650 ;;      Totals:         0       0       0       0       0       0       0       0       0       0       0       0       
      +0       0
  1651 ;;Total ram usage:        0 bytes
  1652 ;; Hardware stack levels used:    1
  1653 ;; Hardware stack levels required when called:    3
  1654 ;; This function calls:
  1655 ;;		Nothing
  1656 ;; This function is called by:
  1657 ;;		_main
  1658 ;; This function uses a non-reentrant model
  1659 ;;
  1660                           
  1661                           
  1662                           ;psect for function _Enable_INT
  1663  019C                     _Enable_INT:	
  1664  019C                     l1165:	
  1665                           ;incstack = 0
  1666                           ; Regs used in _Enable_INT: [status,2]
  1667                           
  1668                           
  1669                           ;main.c: 136: GIE = 1;
  1670  019C  178B               	bsf	11,7	;volatile
  1671                           
  1672                           ;main.c: 137: PEIE = 1;
  1673  019D  170B               	bsf	11,6	;volatile
  1674  019E                     l1167:	
  1675                           
  1676                           ;main.c: 139: PIR1 = 0;
  1677  019E  0020               	movlb	0	; select bank0
  1678  019F  0191               	clrf	17	;volatile
  1679                           
  1680                           ;main.c: 140: PIE1 = 0;
  1681  01A0  0021               	movlb	1	; select bank1
  1682  01A1  0191               	clrf	17	;volatile
  1683  01A2                     l1169:	
  1684                           
  1685                           ;main.c: 141: PIE1bits.TMR1IE = 1;
  1686  01A2  1411               	bsf	17,0	;volatile
  1687  01A3                     l102:	
  1688  01A3  0008               	return
  1689  01A4                     __end_of_Enable_INT:	
  1690                           
  1691                           	psect	intentry
  1692  0004                     __pintentry:	
  1693 ;; *************** function _irs_routine *****************
  1694 ;; Defined at:
  1695 ;;		line 29 in file "main.c"
  1696 ;; Parameters:    Size  Location     Type
  1697 ;;		None
  1698 ;; Auto vars:     Size  Location     Type
  1699 ;;		None
  1700 ;; Return value:  Size  Location     Type
  1701 ;;                  1    wreg      void 
  1702 ;; Registers used:
  1703 ;;		wreg, fsr1l, fsr1h, status,2, status,0, pclath, cstack
  1704 ;; Tracked objects:
  1705 ;;		On entry : 0/0
  1706 ;;		On exit  : 0/0
  1707 ;;		Unchanged: 0/0
  1708 ;; Data sizes:     COMMON   BANK0   BANK1   BANK2   BANK3   BANK4   BANK5   BANK6   BANK7   BANK8   BANK9  BANK10  BANK1
      +1  BANK12
  1709 ;;      Params:         0       0       0       0       0       0       0       0       0       0       0       0       
      +0       0
  1710 ;;      Locals:         0       0       0       0       0       0       0       0       0       0       0       0       
      +0       0
  1711 ;;      Temps:          0       0       0       0       0       0       0       0       0       0       0       0       
      +0       0
  1712 ;;      Totals:         0       0       0       0       0       0       0       0       0       0       0       0       
      +0       0
  1713 ;;Total ram usage:        0 bytes
  1714 ;; Hardware stack levels used:    1
  1715 ;; Hardware stack levels required when called:    2
  1716 ;; This function calls:
  1717 ;;		_i2c_isr
  1718 ;;		_sound
  1719 ;; This function is called by:
  1720 ;;		Interrupt level 1
  1721 ;; This function uses a non-reentrant model
  1722 ;;
  1723                           
  1724  0004                     _irs_routine:	
  1725                           
  1726                           ;incstack = 0
  1727  0004  147E               	bsf	int$flags,0	;set compiler interrupt flag (level 1)
  1728                           
  1729                           ; Regs used in _irs_routine: [wreg+fsr1l+fsr1h+status,2+status,0+pclath+cstack]
  1730  0005  3180               	pagesel	$
  1731  0006                     i1l1175:	
  1732                           
  1733                           ;main.c: 31: if(PIR1bits.TMR1IF == 1) {
  1734  0006  0020               	movlb	0	; select bank0
  1735  0007  1C11               	btfss	17,0	;volatile
  1736  0008  280A               	goto	u50_21
  1737  0009  280B               	goto	u50_20
  1738  000A                     u50_21:	
  1739  000A  281D               	goto	i1l1185
  1740  000B                     u50_20:	
  1741  000B                     i1l1177:	
  1742                           
  1743                           ;main.c: 33: LATBbits.LATB0 = !LATBbits.LATB0;
  1744  000B  1003               	clrc
  1745  000C  0022               	movlb	2	; select bank2
  1746  000D  1C0D               	btfss	13,0	;volatile
  1747  000E  1403               	setc
  1748  000F  1803               	btfsc	3,0
  1749  0010  2812               	goto	u51_21
  1750  0011  2815               	goto	u51_20
  1751  0012                     u51_21:	
  1752  0012  0022               	movlb	2	; select bank2
  1753  0013  140D               	bsf	13,0	;volatile
  1754  0014  2817               	goto	u52_24
  1755  0015                     u51_20:	
  1756  0015  0022               	movlb	2	; select bank2
  1757  0016  100D               	bcf	13,0	;volatile
  1758  0017                     u52_24:	
  1759  0017                     i1l1179:	
  1760                           
  1761                           ;main.c: 34: PIR1bits.TMR1IF = 0;
  1762  0017  0020               	movlb	0	; select bank0
  1763  0018  1011               	bcf	17,0	;volatile
  1764  0019                     i1l1181:	
  1765                           
  1766                           ;main.c: 35: TMR1H = 0xff;
  1767  0019  30FF               	movlw	255
  1768  001A  0097               	movwf	23	;volatile
  1769  001B                     i1l1183:	
  1770                           
  1771                           ;main.c: 36: TMR1L = 0xae;
  1772  001B  30AE               	movlw	174
  1773  001C  0096               	movwf	22	;volatile
  1774  001D                     i1l1185:	
  1775                           
  1776                           ;main.c: 37: };main.c: 38: if(PIR1bits.TMR2IF == 1) {
  1777  001D  1C91               	btfss	17,1	;volatile
  1778  001E  2820               	goto	u53_21
  1779  001F  2821               	goto	u53_20
  1780  0020                     u53_21:	
  1781  0020  2830               	goto	i1l1193
  1782  0021                     u53_20:	
  1783  0021                     i1l1187:	
  1784                           
  1785                           ;main.c: 39: sound(voice[idx]);
  1786  0021  3534               	lslf	_idx,w
  1787  0022  3E20               	addlw	(low (_voice| 0))& (0+255)
  1788  0023  0086               	movwf	6
  1789  0024  0187               	clrf	7
  1790  0025  3F40               	moviw [0]fsr1
  1791  0026  00F6               	movwf	sound@gate1
  1792  0027  3F41               	moviw [1]fsr1
  1793  0028  00F7               	movwf	sound@gate1+1
  1794  0029  3180  20A8  3180   	fcall	_sound
  1795  002C                     i1l1189:	
  1796                           
  1797                           ;main.c: 41: PIR1bits.TMR2IF = 0;
  1798  002C  0020               	movlb	0	; select bank0
  1799  002D  1091               	bcf	17,1	;volatile
  1800  002E                     i1l1191:	
  1801                           
  1802                           ;main.c: 42: TMR2 = 0xfe;
  1803  002E  30FE               	movlw	254
  1804  002F  009A               	movwf	26	;volatile
  1805  0030                     i1l1193:	
  1806                           
  1807                           ;main.c: 43: };main.c: 44: if (PIR1bits.SSP1IF == 1){
  1808  0030  1D91               	btfss	17,3	;volatile
  1809  0031  2833               	goto	u54_21
  1810  0032  2834               	goto	u54_20
  1811  0033                     u54_21:	
  1812  0033  2837               	goto	i1l74
  1813  0034                     u54_20:	
  1814  0034                     i1l1195:	
  1815                           
  1816                           ;main.c: 45: i2c_isr();
  1817  0034  3181  211B  3180   	fcall	_i2c_isr
  1818  0037                     i1l74:	
  1819  0037  107E               	bcf	int$flags,0	;clear compiler interrupt flag (level 1)
  1820  0038  0009               	retfie
  1821  0039                     __end_of_irs_routine:	
  1822                           
  1823                           	psect	text5
  1824  00A8                     __ptext5:	
  1825 ;; *************** function _sound *****************
  1826 ;; Defined at:
  1827 ;;		line 50 in file "main.c"
  1828 ;; Parameters:    Size  Location     Type
  1829 ;;  gate1           2    6[COMMON] int 
  1830 ;; Auto vars:     Size  Location     Type
  1831 ;;		None
  1832 ;; Return value:  Size  Location     Type
  1833 ;;                  1    wreg      void 
  1834 ;; Registers used:
  1835 ;;		wreg, status,2, status,0, pclath, cstack
  1836 ;; Tracked objects:
  1837 ;;		On entry : 0/0
  1838 ;;		On exit  : 0/0
  1839 ;;		Unchanged: 0/0
  1840 ;; Data sizes:     COMMON   BANK0   BANK1   BANK2   BANK3   BANK4   BANK5   BANK6   BANK7   BANK8   BANK9  BANK10  BANK1
      +1  BANK12
  1841 ;;      Params:         2       0       0       0       0       0       0       0       0       0       0       0       
      +0       0
  1842 ;;      Locals:         0       0       0       0       0       0       0       0       0       0       0       0       
      +0       0
  1843 ;;      Temps:          0       0       0       0       0       0       0       0       0       0       0       0       
      +0       0
  1844 ;;      Totals:         2       0       0       0       0       0       0       0       0       0       0       0       
      +0       0
  1845 ;;Total ram usage:        2 bytes
  1846 ;; Hardware stack levels used:    1
  1847 ;; Hardware stack levels required when called:    1
  1848 ;; This function calls:
  1849 ;;		___lwmod
  1850 ;; This function is called by:
  1851 ;;		_irs_routine
  1852 ;; This function uses a non-reentrant model
  1853 ;;
  1854                           
  1855                           
  1856                           ;psect for function _sound
  1857  00A8                     _sound:	
  1858  00A8                     i1l1125:	
  1859                           ;incstack = 0
  1860                           ; Regs used in _sound: [wreg+status,2+status,0+pclath+cstack]
  1861                           
  1862                           
  1863                           ;main.c: 52: if(++cnt_2 >= 30000) {
  1864  00A8  3001               	movlw	1
  1865  00A9  0020               	movlb	0	; select bank0
  1866  00AA  07B6               	addwf	_cnt_2,f
  1867  00AB  3000               	movlw	0
  1868  00AC  3DB7               	addwfc	_cnt_2+1,f
  1869  00AD  3075               	movlw	117
  1870  00AE  0237               	subwf	_cnt_2+1,w
  1871  00AF  3030               	movlw	48
  1872  00B0  1903               	skipnz
  1873  00B1  0236               	subwf	_cnt_2,w
  1874  00B2  1C03               	skipc
  1875  00B3  28B5               	goto	u42_21
  1876  00B4  28B6               	goto	u42_20
  1877  00B5                     u42_21:	
  1878  00B5  28CC               	goto	i1l1133
  1879  00B6                     u42_20:	
  1880  00B6                     i1l1127:	
  1881                           
  1882                           ;main.c: 53: cnt_2 = 0;
  1883  00B6  01B6               	clrf	_cnt_2
  1884  00B7  01B7               	clrf	_cnt_2+1
  1885  00B8                     i1l1129:	
  1886                           
  1887                           ;main.c: 54: ++idx;
  1888  00B8  3001               	movlw	1
  1889  00B9  07B4               	addwf	_idx,f
  1890  00BA  3000               	movlw	0
  1891  00BB  3DB5               	addwfc	_idx+1,f
  1892  00BC                     i1l1131:	
  1893                           
  1894                           ;main.c: 55: idx = idx % 10;
  1895  00BC  300A               	movlw	10
  1896  00BD  00F0               	movwf	___lwmod@divisor
  1897  00BE  3000               	movlw	0
  1898  00BF  00F1               	movwf	___lwmod@divisor+1
  1899  00C0  0835               	movf	_idx+1,w
  1900  00C1  00F3               	movwf	___lwmod@dividend+1
  1901  00C2  0834               	movf	_idx,w
  1902  00C3  00F2               	movwf	___lwmod@dividend
  1903  00C4  3180  20E7  3180   	fcall	___lwmod
  1904  00C7  0871               	movf	?___lwmod+1,w
  1905  00C8  0020               	movlb	0	; select bank0
  1906  00C9  00B5               	movwf	_idx+1
  1907  00CA  0870               	movf	?___lwmod,w
  1908  00CB  00B4               	movwf	_idx
  1909  00CC                     i1l1133:	
  1910                           
  1911                           ;main.c: 56: };main.c: 58: if(++cnt_1 == gate1) {
  1912  00CC  3001               	movlw	1
  1913  00CD  07B8               	addwf	_cnt_1,f
  1914  00CE  3000               	movlw	0
  1915  00CF  3DB9               	addwfc	_cnt_1+1,f
  1916  00D0  0877               	movf	sound@gate1+1,w
  1917  00D1  0639               	xorwf	_cnt_1+1,w
  1918  00D2  1D03               	skipz
  1919  00D3  28D6               	goto	u43_25
  1920  00D4  0876               	movf	sound@gate1,w
  1921  00D5  0638               	xorwf	_cnt_1,w
  1922  00D6                     u43_25:	
  1923  00D6  1D03               	skipz
  1924  00D7  28D9               	goto	u43_21
  1925  00D8  28DA               	goto	u43_20
  1926  00D9                     u43_21:	
  1927  00D9  28E6               	goto	i1l79
  1928  00DA                     u43_20:	
  1929  00DA                     i1l1135:	
  1930                           
  1931                           ;main.c: 59: LATBbits.LATB0 = !LATBbits.LATB0;
  1932  00DA  1003               	clrc
  1933  00DB  0022               	movlb	2	; select bank2
  1934  00DC  1C0D               	btfss	13,0	;volatile
  1935  00DD  1403               	setc
  1936  00DE  1803               	btfsc	3,0
  1937  00DF  28E1               	goto	u44_21
  1938  00E0  28E4               	goto	u44_20
  1939  00E1                     u44_21:	
  1940  00E1  0022               	movlb	2	; select bank2
  1941  00E2  140D               	bsf	13,0	;volatile
  1942  00E3  28E6               	goto	u45_24
  1943  00E4                     u44_20:	
  1944  00E4  0022               	movlb	2	; select bank2
  1945  00E5  100D               	bcf	13,0	;volatile
  1946  00E6                     u45_24:	
  1947  00E6                     i1l79:	
  1948  00E6  0008               	return
  1949  00E7                     __end_of_sound:	
  1950                           
  1951                           	psect	text6
  1952  00E7                     __ptext6:	
  1953 ;; *************** function ___lwmod *****************
  1954 ;; Defined at:
  1955 ;;		line 5 in file "C:\Program Files (x86)\Microchip\xc8\v2.10\pic\sources\c90\common\lwmod.c"
  1956 ;; Parameters:    Size  Location     Type
  1957 ;;  divisor         2    0[COMMON] unsigned int 
  1958 ;;  dividend        2    2[COMMON] unsigned int 
  1959 ;; Auto vars:     Size  Location     Type
  1960 ;;  counter         1    5[COMMON] unsigned char 
  1961 ;; Return value:  Size  Location     Type
  1962 ;;                  2    0[COMMON] unsigned int 
  1963 ;; Registers used:
  1964 ;;		wreg, status,2, status,0
  1965 ;; Tracked objects:
  1966 ;;		On entry : 0/0
  1967 ;;		On exit  : 0/0
  1968 ;;		Unchanged: 0/0
  1969 ;; Data sizes:     COMMON   BANK0   BANK1   BANK2   BANK3   BANK4   BANK5   BANK6   BANK7   BANK8   BANK9  BANK10  BANK1
      +1  BANK12
  1970 ;;      Params:         4       0       0       0       0       0       0       0       0       0       0       0       
      +0       0
  1971 ;;      Locals:         1       0       0       0       0       0       0       0       0       0       0       0       
      +0       0
  1972 ;;      Temps:          1       0       0       0       0       0       0       0       0       0       0       0       
      +0       0
  1973 ;;      Totals:         6       0       0       0       0       0       0       0       0       0       0       0       
      +0       0
  1974 ;;Total ram usage:        6 bytes
  1975 ;; Hardware stack levels used:    1
  1976 ;; This function calls:
  1977 ;;		Nothing
  1978 ;; This function is called by:
  1979 ;;		_sound
  1980 ;; This function uses a non-reentrant model
  1981 ;;
  1982                           
  1983                           
  1984                           ;psect for function ___lwmod
  1985  00E7                     ___lwmod:	
  1986  00E7                     i1l1103:	
  1987                           ;incstack = 0
  1988                           ; Regs used in ___lwmod: [wreg+status,2+status,0]
  1989                           
  1990  00E7  0870               	movf	___lwmod@divisor,w
  1991  00E8  0471               	iorwf	___lwmod@divisor+1,w
  1992  00E9  1903               	btfsc	3,2
  1993  00EA  28EC               	goto	u36_21
  1994  00EB  28ED               	goto	u36_20
  1995  00EC                     u36_21:	
  1996  00EC  2916               	goto	i1l1121
  1997  00ED                     u36_20:	
  1998  00ED                     i1l1105:	
  1999  00ED  01F5               	clrf	___lwmod@counter
  2000  00EE  0AF5               	incf	___lwmod@counter,f
  2001  00EF  28F9               	goto	i1l1111
  2002  00F0                     i1l1107:	
  2003  00F0  3001               	movlw	1
  2004  00F1                     u37_25:	
  2005  00F1  35F0               	lslf	___lwmod@divisor,f
  2006  00F2  0DF1               	rlf	___lwmod@divisor+1,f
  2007  00F3  0B89               	decfsz	9,f
  2008  00F4  28F1               	goto	u37_25
  2009  00F5                     i1l1109:	
  2010  00F5  3001               	movlw	1
  2011  00F6  00F4               	movwf	??___lwmod
  2012  00F7  0874               	movf	??___lwmod,w
  2013  00F8  07F5               	addwf	___lwmod@counter,f
  2014  00F9                     i1l1111:	
  2015  00F9  1FF1               	btfss	___lwmod@divisor+1,7
  2016  00FA  28FC               	goto	u38_21
  2017  00FB  28FD               	goto	u38_20
  2018  00FC                     u38_21:	
  2019  00FC  28F0               	goto	i1l1107
  2020  00FD                     u38_20:	
  2021  00FD                     i1l1113:	
  2022  00FD  0871               	movf	___lwmod@divisor+1,w
  2023  00FE  0273               	subwf	___lwmod@dividend+1,w
  2024  00FF  1D03               	skipz
  2025  0100  2903               	goto	u39_25
  2026  0101  0870               	movf	___lwmod@divisor,w
  2027  0102  0272               	subwf	___lwmod@dividend,w
  2028  0103                     u39_25:	
  2029  0103  1C03               	skipc
  2030  0104  2906               	goto	u39_21
  2031  0105  2907               	goto	u39_20
  2032  0106                     u39_21:	
  2033  0106  290B               	goto	i1l1117
  2034  0107                     u39_20:	
  2035  0107                     i1l1115:	
  2036  0107  0870               	movf	___lwmod@divisor,w
  2037  0108  02F2               	subwf	___lwmod@dividend,f
  2038  0109  0871               	movf	___lwmod@divisor+1,w
  2039  010A  3BF3               	subwfb	___lwmod@dividend+1,f
  2040  010B                     i1l1117:	
  2041  010B  3001               	movlw	1
  2042  010C                     u40_25:	
  2043  010C  36F1               	lsrf	___lwmod@divisor+1,f
  2044  010D  0CF0               	rrf	___lwmod@divisor,f
  2045  010E  0B89               	decfsz	9,f
  2046  010F  290C               	goto	u40_25
  2047  0110                     i1l1119:	
  2048  0110  3001               	movlw	1
  2049  0111  02F5               	subwf	___lwmod@counter,f
  2050  0112  1D03               	btfss	3,2
  2051  0113  2915               	goto	u41_21
  2052  0114  2916               	goto	u41_20
  2053  0115                     u41_21:	
  2054  0115  28FD               	goto	i1l1113
  2055  0116                     u41_20:	
  2056  0116                     i1l1121:	
  2057  0116  0873               	movf	___lwmod@dividend+1,w
  2058  0117  00F1               	movwf	?___lwmod+1
  2059  0118  0872               	movf	___lwmod@dividend,w
  2060  0119  00F0               	movwf	?___lwmod
  2061  011A                     i1l625:	
  2062  011A  0008               	return
  2063  011B                     __end_of___lwmod:	
  2064                           
  2065                           	psect	text7
  2066  011B                     __ptext7:	
  2067 ;; *************** function _i2c_isr *****************
  2068 ;; Defined at:
  2069 ;;		line 63 in file "main.c"
  2070 ;; Parameters:    Size  Location     Type
  2071 ;;		None
  2072 ;; Auto vars:     Size  Location     Type
  2073 ;;  data            1    0        unsigned char 
  2074 ;; Return value:  Size  Location     Type
  2075 ;;                  1    wreg      void 
  2076 ;; Registers used:
  2077 ;;		wreg, fsr1l, fsr1h, status,2, status,0, pclath, cstack
  2078 ;; Tracked objects:
  2079 ;;		On entry : 0/0
  2080 ;;		On exit  : 0/0
  2081 ;;		Unchanged: 0/0
  2082 ;; Data sizes:     COMMON   BANK0   BANK1   BANK2   BANK3   BANK4   BANK5   BANK6   BANK7   BANK8   BANK9  BANK10  BANK1
      +1  BANK12
  2083 ;;      Params:         0       0       0       0       0       0       0       0       0       0       0       0       
      +0       0
  2084 ;;      Locals:         1       0       0       0       0       0       0       0       0       0       0       0       
      +0       0
  2085 ;;      Temps:          1       0       0       0       0       0       0       0       0       0       0       0       
      +0       0
  2086 ;;      Totals:         2       0       0       0       0       0       0       0       0       0       0       0       
      +0       0
  2087 ;;Total ram usage:        2 bytes
  2088 ;; Hardware stack levels used:    1
  2089 ;; Hardware stack levels required when called:    1
  2090 ;; This function calls:
  2091 ;;		_iicPeripheralInterruptRx
  2092 ;;		_iicPeripheralInterruptTx
  2093 ;; This function is called by:
  2094 ;;		_irs_routine
  2095 ;; This function uses a non-reentrant model
  2096 ;;
  2097                           
  2098                           
  2099                           ;psect for function _i2c_isr
  2100  011B                     _i2c_isr:	
  2101  011B                     i1l1137:	
  2102                           ;incstack = 0
  2103                           ; Regs used in _i2c_isr: [wreg+fsr1l+fsr1h+status,2+status,0+pclath+cstack]
  2104                           
  2105                           
  2106                           ;main.c: 66: if (SSPSTATbits.D_nA == 0 && SSPSTATbits.R_nW == 0) {
  2107  011B  0024               	movlb	4	; select bank4
  2108  011C  1A94               	btfsc	20,5	;volatile
  2109  011D  291F               	goto	u46_21
  2110  011E  2920               	goto	u46_20
  2111  011F                     u46_21:	
  2112  011F  292F               	goto	i1l82
  2113  0120                     u46_20:	
  2114  0120                     i1l1139:	
  2115  0120  1914               	btfsc	20,2	;volatile
  2116  0121  2923               	goto	u47_21
  2117  0122  2924               	goto	u47_20
  2118  0123                     u47_21:	
  2119  0123  292F               	goto	i1l82
  2120  0124                     u47_20:	
  2121  0124                     i1l1141:	
  2122                           
  2123                           ;main.c: 68: recvData = iicPeripheralInterruptRx();
  2124  0124  3181  2144  3181   	fcall	_iicPeripheralInterruptRx
  2125  0127  00F8               	movwf	??_i2c_isr
  2126  0128  0878               	movf	??_i2c_isr,w
  2127  0129  00FB               	movwf	_recvData
  2128  012A                     i1l1143:	
  2129                           
  2130                           ;main.c: 69: count++;
  2131  012A  3001               	movlw	1
  2132  012B  00F8               	movwf	??_i2c_isr
  2133  012C  0878               	movf	??_i2c_isr,w
  2134  012D  07FC               	addwf	_count,f
  2135                           
  2136                           ;main.c: 71: } else if (SSPSTATbits.D_nA == 0 && SSPSTATbits.R_nW == 1) {
  2137  012E  2941               	goto	i1l1153
  2138  012F                     i1l82:	
  2139  012F  1A94               	btfsc	20,5	;volatile
  2140  0130  2932               	goto	u48_21
  2141  0131  2933               	goto	u48_20
  2142  0132                     u48_21:	
  2143  0132  2941               	goto	i1l1153
  2144  0133                     u48_20:	
  2145  0133                     i1l1145:	
  2146  0133  1D14               	btfss	20,2	;volatile
  2147  0134  2936               	goto	u49_21
  2148  0135  2937               	goto	u49_20
  2149  0136                     u49_21:	
  2150  0136  2941               	goto	i1l1153
  2151  0137                     u49_20:	
  2152  0137                     i1l1147:	
  2153  0137                     i1l1149:	
  2154                           
  2155                           ;main.c: 74: iicPeripheralInterruptTx(data, 1);
  2156  0137  3002               	movlw	2
  2157  0138  00F0               	movwf	iicPeripheralInterruptTx@data
  2158  0139  3000               	movlw	0
  2159  013A  00F1               	movwf	iicPeripheralInterruptTx@data+1
  2160  013B  01F2               	clrf	iicPeripheralInterruptTx@size
  2161  013C  0AF2               	incf	iicPeripheralInterruptTx@size,f
  2162  013D  3180  2057  3181   	fcall	_iicPeripheralInterruptTx
  2163  0140  292A               	goto	i1l1143
  2164  0141                     i1l1153:	
  2165                           
  2166                           ;main.c: 76: };main.c: 77: PIR1bits.SSP1IF = 0;
  2167  0141  0020               	movlb	0	; select bank0
  2168  0142  1191               	bcf	17,3	;volatile
  2169  0143                     i1l85:	
  2170  0143  0008               	return
  2171  0144                     __end_of_i2c_isr:	
  2172                           
  2173                           	psect	text8
  2174  0057                     __ptext8:	
  2175 ;; *************** function _iicPeripheralInterruptTx *****************
  2176 ;; Defined at:
  2177 ;;		line 5 in file "i2c_peripheral.c"
  2178 ;; Parameters:    Size  Location     Type
  2179 ;;  data            2    0[COMMON] PTR unsigned char 
  2180 ;;		 -> RAM(4096), 
  2181 ;;  size            1    2[COMMON] unsigned char 
  2182 ;; Auto vars:     Size  Location     Type
  2183 ;;  i               1    7[COMMON] unsigned char 
  2184 ;;  tmp             1    0        unsigned char 
  2185 ;; Return value:  Size  Location     Type
  2186 ;;                  1    wreg      void 
  2187 ;; Registers used:
  2188 ;;		wreg, fsr1l, fsr1h, status,2, status,0
  2189 ;; Tracked objects:
  2190 ;;		On entry : 0/0
  2191 ;;		On exit  : 0/0
  2192 ;;		Unchanged: 0/0
  2193 ;; Data sizes:     COMMON   BANK0   BANK1   BANK2   BANK3   BANK4   BANK5   BANK6   BANK7   BANK8   BANK9  BANK10  BANK1
      +1  BANK12
  2194 ;;      Params:         3       0       0       0       0       0       0       0       0       0       0       0       
      +0       0
  2195 ;;      Locals:         2       0       0       0       0       0       0       0       0       0       0       0       
      +0       0
  2196 ;;      Temps:          3       0       0       0       0       0       0       0       0       0       0       0       
      +0       0
  2197 ;;      Totals:         8       0       0       0       0       0       0       0       0       0       0       0       
      +0       0
  2198 ;;Total ram usage:        8 bytes
  2199 ;; Hardware stack levels used:    1
  2200 ;; This function calls:
  2201 ;;		Nothing
  2202 ;; This function is called by:
  2203 ;;		_i2c_isr
  2204 ;; This function uses a non-reentrant model
  2205 ;;
  2206                           
  2207                           
  2208                           ;psect for function _iicPeripheralInterruptTx
  2209  0057                     _iicPeripheralInterruptTx:	
  2210  0057                     i1l1073:	
  2211                           ;incstack = 0
  2212                           ; Regs used in _iicPeripheralInterruptTx: [wreg+fsr1l+fsr1h+status,2+status,0]
  2213                           
  2214                           
  2215                           ;i2c_peripheral.c: 6: SSPCONbits.CKP = 0;
  2216  0057  0024               	movlb	4	; select bank4
  2217  0058  1215               	bcf	21,4	;volatile
  2218  0059                     i1l1075:	
  2219                           
  2220                           ;i2c_peripheral.c: 7: unsigned char i = 0;
  2221  0059  01F7               	clrf	iicPeripheralInterruptTx@i
  2222  005A                     i1l1077:	
  2223                           
  2224                           ;i2c_peripheral.c: 8: unsigned char tmp;;i2c_peripheral.c: 10: if(SSPSTATbits.R_nW == 1)
      +                           {
  2225  005A  1D14               	btfss	20,2	;volatile
  2226  005B  285D               	goto	u31_21
  2227  005C  285E               	goto	u31_20
  2228  005D                     u31_21:	
  2229  005D  28A5               	goto	i1l120
  2230  005E                     u31_20:	
  2231  005E                     i1l1079:	
  2232                           
  2233                           ;i2c_peripheral.c: 12: PIR1bits.SSP1IF = 0;
  2234  005E  0020               	movlb	0	; select bank0
  2235  005F  1191               	bcf	17,3	;volatile
  2236  0060                     i1l1081:	
  2237  0060  0024               	movlb	4	; select bank4
  2238  0061  0811               	movf	17,w	;volatile
  2239  0062                     i1l1083:	
  2240                           
  2241                           ;i2c_peripheral.c: 14: SSPSTATbits.BF = 0;
  2242  0062  1014               	bcf	20,0	;volatile
  2243  0063                     i1l1085:	
  2244                           
  2245                           ;i2c_peripheral.c: 15: SSP1BUF = data[i];
  2246  0063  0870               	movf	iicPeripheralInterruptTx@data,w
  2247  0064  0086               	movwf	6
  2248  0065  0871               	movf	iicPeripheralInterruptTx@data+1,w
  2249  0066  0087               	movwf	7
  2250  0067  0801               	movf	1,w
  2251  0068  0091               	movwf	17	;volatile
  2252  0069                     i1l1087:	
  2253                           
  2254                           ;i2c_peripheral.c: 16: SSPCONbits.CKP = 1;
  2255  0069  1615               	bsf	21,4	;volatile
  2256  006A                     i1l121:	
  2257                           ;i2c_peripheral.c: 17: while(PIR1bits.SSP1IF == 0);
  2258                           
  2259  006A  0020               	movlb	0	; select bank0
  2260  006B  1D91               	btfss	17,3	;volatile
  2261  006C  286E               	goto	u32_21
  2262  006D  286F               	goto	u32_20
  2263  006E                     u32_21:	
  2264  006E  286A               	goto	i1l121
  2265  006F                     u32_20:	
  2266  006F                     i1l123:	
  2267                           
  2268                           ;i2c_peripheral.c: 18: PIR1bits.SSP1IF = 0;
  2269  006F  1191               	bcf	17,3	;volatile
  2270  0070                     i1l1089:	
  2271                           
  2272                           ;i2c_peripheral.c: 19: i++;
  2273  0070  3001               	movlw	1
  2274  0071  00F3               	movwf	??_iicPeripheralInterruptTx
  2275  0072  0873               	movf	??_iicPeripheralInterruptTx,w
  2276  0073  07F7               	addwf	iicPeripheralInterruptTx@i,f
  2277                           
  2278                           ;i2c_peripheral.c: 21: while(SSPCON2bits.ACKSTAT == 0) {
  2279  0074  28A0               	goto	i1l1101
  2280  0075                     i1l1091:	
  2281                           
  2282                           ;i2c_peripheral.c: 22: SSP1BUF = data[i];
  2283  0075  0877               	movf	iicPeripheralInterruptTx@i,w
  2284  0076  00F3               	movwf	??_iicPeripheralInterruptTx
  2285  0077  01F4               	clrf	??_iicPeripheralInterruptTx+1
  2286  0078  0873               	movf	??_iicPeripheralInterruptTx,w
  2287  0079  0770               	addwf	iicPeripheralInterruptTx@data,w
  2288  007A  0086               	movwf	6
  2289  007B  0874               	movf	??_iicPeripheralInterruptTx+1,w
  2290  007C  3D71               	addwfc	iicPeripheralInterruptTx@data+1,w
  2291  007D  0087               	movwf	7
  2292  007E  0801               	movf	1,w
  2293  007F  0091               	movwf	17	;volatile
  2294  0080                     i1l1093:	
  2295                           
  2296                           ;i2c_peripheral.c: 23: SSPCONbits.CKP = 1;
  2297  0080  1615               	bsf	21,4	;volatile
  2298  0081                     i1l126:	
  2299                           ;i2c_peripheral.c: 24: while(PIR1bits.SSP1IF == 0);
  2300                           
  2301  0081  0020               	movlb	0	; select bank0
  2302  0082  1D91               	btfss	17,3	;volatile
  2303  0083  2885               	goto	u33_21
  2304  0084  2886               	goto	u33_20
  2305  0085                     u33_21:	
  2306  0085  2881               	goto	i1l126
  2307  0086                     u33_20:	
  2308  0086                     i1l1095:	
  2309                           
  2310                           ;i2c_peripheral.c: 25: if (i + 1 < size) {
  2311  0086  0877               	movf	iicPeripheralInterruptTx@i,w
  2312  0087  3E01               	addlw	1
  2313  0088  00F3               	movwf	??_iicPeripheralInterruptTx
  2314  0089  3000               	movlw	0
  2315  008A  1803               	skipnc
  2316  008B  3001               	movlw	1
  2317  008C  00F4               	movwf	??_iicPeripheralInterruptTx+1
  2318  008D  0874               	movf	??_iicPeripheralInterruptTx+1,w
  2319  008E  3A80               	xorlw	128
  2320  008F  00F5               	movwf	??_iicPeripheralInterruptTx+2
  2321  0090  3080               	movlw	128
  2322  0091  0275               	subwf	??_iicPeripheralInterruptTx+2,w
  2323  0092  1D03               	skipz
  2324  0093  2896               	goto	u34_25
  2325  0094  0872               	movf	iicPeripheralInterruptTx@size,w
  2326  0095  0273               	subwf	??_iicPeripheralInterruptTx,w
  2327  0096                     u34_25:	
  2328  0096  1803               	skipnc
  2329  0097  2899               	goto	u34_21
  2330  0098  289A               	goto	u34_20
  2331  0099                     u34_21:	
  2332  0099  289E               	goto	i1l1099
  2333  009A                     u34_20:	
  2334  009A                     i1l1097:	
  2335                           
  2336                           ;i2c_peripheral.c: 26: i++;
  2337  009A  3001               	movlw	1
  2338  009B  00F3               	movwf	??_iicPeripheralInterruptTx
  2339  009C  0873               	movf	??_iicPeripheralInterruptTx,w
  2340  009D  07F7               	addwf	iicPeripheralInterruptTx@i,f
  2341  009E                     i1l1099:	
  2342                           
  2343                           ;i2c_peripheral.c: 27: };i2c_peripheral.c: 28: PIR1bits.SSP1IF = 0;
  2344  009E  0020               	movlb	0	; select bank0
  2345  009F  1191               	bcf	17,3	;volatile
  2346  00A0                     i1l1101:	
  2347  00A0  0024               	movlb	4	; select bank4
  2348  00A1  1F16               	btfss	22,6	;volatile
  2349  00A2  28A4               	goto	u35_21
  2350  00A3  28A5               	goto	u35_20
  2351  00A4                     u35_21:	
  2352  00A4  2875               	goto	i1l1091
  2353  00A5                     u35_20:	
  2354  00A5                     i1l120:	
  2355                           
  2356                           ;i2c_peripheral.c: 29: };i2c_peripheral.c: 30: };i2c_peripheral.c: 31: PIR1bits.SSP1IF =
      +                           0;
  2357  00A5  0020               	movlb	0	; select bank0
  2358  00A6  1191               	bcf	17,3	;volatile
  2359  00A7                     i1l131:	
  2360  00A7  0008               	return
  2361  00A8                     __end_of_iicPeripheralInterruptTx:	
  2362                           
  2363                           	psect	text9
  2364  0144                     __ptext9:	
  2365 ;; *************** function _iicPeripheralInterruptRx *****************
  2366 ;; Defined at:
  2367 ;;		line 35 in file "i2c_peripheral.c"
  2368 ;; Parameters:    Size  Location     Type
  2369 ;;		None
  2370 ;; Auto vars:     Size  Location     Type
  2371 ;;  data            1    2[COMMON] unsigned char 
  2372 ;;  tmp             1    0        unsigned char 
  2373 ;; Return value:  Size  Location     Type
  2374 ;;                  1    wreg      unsigned char 
  2375 ;; Registers used:
  2376 ;;		wreg, status,2
  2377 ;; Tracked objects:
  2378 ;;		On entry : 0/0
  2379 ;;		On exit  : 0/0
  2380 ;;		Unchanged: 0/0
  2381 ;; Data sizes:     COMMON   BANK0   BANK1   BANK2   BANK3   BANK4   BANK5   BANK6   BANK7   BANK8   BANK9  BANK10  BANK1
      +1  BANK12
  2382 ;;      Params:         0       0       0       0       0       0       0       0       0       0       0       0       
      +0       0
  2383 ;;      Locals:         2       0       0       0       0       0       0       0       0       0       0       0       
      +0       0
  2384 ;;      Temps:          1       0       0       0       0       0       0       0       0       0       0       0       
      +0       0
  2385 ;;      Totals:         3       0       0       0       0       0       0       0       0       0       0       0       
      +0       0
  2386 ;;Total ram usage:        3 bytes
  2387 ;; Hardware stack levels used:    1
  2388 ;; This function calls:
  2389 ;;		Nothing
  2390 ;; This function is called by:
  2391 ;;		_i2c_isr
  2392 ;; This function uses a non-reentrant model
  2393 ;;
  2394                           
  2395                           
  2396                           ;psect for function _iicPeripheralInterruptRx
  2397  0144                     _iicPeripheralInterruptRx:	
  2398  0144                     i1l1055:	
  2399                           ;incstack = 0
  2400                           ; Regs used in _iicPeripheralInterruptRx: [wreg+status,2]
  2401                           
  2402                           
  2403                           ;i2c_peripheral.c: 36: PIR1bits.SSP1IF = 0;
  2404  0144  0020               	movlb	0	; select bank0
  2405  0145  1191               	bcf	17,3	;volatile
  2406  0146                     i1l1057:	
  2407  0146  0024               	movlb	4	; select bank4
  2408  0147  0811               	movf	17,w	;volatile
  2409  0148                     i1l1059:	
  2410                           
  2411                           ;i2c_peripheral.c: 39: SSPSTATbits.BF = 0;
  2412  0148  1014               	bcf	20,0	;volatile
  2413  0149                     i1l1061:	
  2414                           
  2415                           ;i2c_peripheral.c: 40: SSPCONbits.CKP = 1;
  2416  0149  1615               	bsf	21,4	;volatile
  2417  014A                     i1l1063:	
  2418  014A                     i1l134:	
  2419                           ;i2c_peripheral.c: 42: while (SSPSTATbits.BF == 0);
  2420                           
  2421  014A  1C14               	btfss	20,0	;volatile
  2422  014B  294D               	goto	u29_21
  2423  014C  294E               	goto	u29_20
  2424  014D                     u29_21:	
  2425  014D  294A               	goto	i1l134
  2426  014E                     u29_20:	
  2427  014E                     i1l136:	
  2428                           
  2429                           ;i2c_peripheral.c: 43: SSPCON2bits.ACKDT = 1;
  2430  014E  1696               	bsf	22,5	;volatile
  2431                           
  2432                           ;i2c_peripheral.c: 44: SSPCON2bits.ACKEN = 1;
  2433  014F  1616               	bsf	22,4	;volatile
  2434  0150                     i1l137:	
  2435                           ;i2c_peripheral.c: 45: while (!PIR1bits.SSP1IF);
  2436                           
  2437  0150  0020               	movlb	0	; select bank0
  2438  0151  1D91               	btfss	17,3	;volatile
  2439  0152  2954               	goto	u30_21
  2440  0153  2955               	goto	u30_20
  2441  0154                     u30_21:	
  2442  0154  2950               	goto	i1l137
  2443  0155                     u30_20:	
  2444  0155                     i1l139:	
  2445                           
  2446                           ;i2c_peripheral.c: 46: PIR1bits.SSP1IF = 0;
  2447  0155  1191               	bcf	17,3	;volatile
  2448  0156                     i1l1065:	
  2449                           
  2450                           ;i2c_peripheral.c: 47: data = SSP1BUF;
  2451  0156  0024               	movlb	4	; select bank4
  2452  0157  0811               	movf	17,w	;volatile
  2453  0158  00F0               	movwf	??_iicPeripheralInterruptRx
  2454  0159  0870               	movf	??_iicPeripheralInterruptRx,w
  2455  015A  00F2               	movwf	iicPeripheralInterruptRx@data
  2456  015B                     i1l1067:	
  2457                           
  2458                           ;i2c_peripheral.c: 48: SSPCONbits.CKP = 1;
  2459  015B  1615               	bsf	21,4	;volatile
  2460  015C                     i1l1069:	
  2461                           
  2462                           ;i2c_peripheral.c: 49: PIR1bits.SSP1IF = 0;
  2463  015C  0020               	movlb	0	; select bank0
  2464  015D  1191               	bcf	17,3	;volatile
  2465                           
  2466                           ;i2c_peripheral.c: 50: return data;
  2467  015E  0872               	movf	iicPeripheralInterruptRx@data,w
  2468  015F                     i1l140:	
  2469  015F  0008               	return
  2470  0160                     __end_of_iicPeripheralInterruptRx:	
  2471  007E                     btemp	set	126	;btemp
  2472  007E                     int$flags	set	126
  2473  007E                     wtemp0	set	126


Data Sizes:
    Strings     0
    Constant    0
    Data        21
    BSS         8
    Persistent  32
    Stack       0

Auto Spaces:
    Space          Size  Autos    Used
    COMMON           14     10      13
    BANK0            80      0      26
    BANK1            80      0       0
    BANK2            80      0       0
    BANK3            80      0       0
    BANK4            80      0       0
    BANK5            80      0       0
    BANK6            80      0       0
    BANK7            80      0       0
    BANK8            80      0       0
    BANK9            80      0       0
    BANK10           80      0       0
    BANK11           80      0       0
    BANK12           48      0       0

Pointer List with Targets:

    iicPeripheralInterruptTx@data	PTR unsigned char  size(2) Largest target is 4096
		 -> RAM(DATA[4096]), 


Critical Paths under _main in COMMON

    None.

Critical Paths under _irs_routine in COMMON

    _irs_routine->_i2c_isr
    _sound->___lwmod
    _i2c_isr->_iicPeripheralInterruptTx

Critical Paths under _main in BANK0

    None.

Critical Paths under _irs_routine in BANK0

    None.

Critical Paths under _main in BANK1

    None.

Critical Paths under _irs_routine in BANK1

    None.

Critical Paths under _main in BANK2

    None.

Critical Paths under _irs_routine in BANK2

    None.

Critical Paths under _main in BANK3

    None.

Critical Paths under _irs_routine in BANK3

    None.

Critical Paths under _main in BANK4

    None.

Critical Paths under _irs_routine in BANK4

    None.

Critical Paths under _main in BANK5

    None.

Critical Paths under _irs_routine in BANK5

    None.

Critical Paths under _main in BANK6

    None.

Critical Paths under _irs_routine in BANK6

    None.

Critical Paths under _main in BANK7

    None.

Critical Paths under _irs_routine in BANK7

    None.

Critical Paths under _main in BANK8

    None.

Critical Paths under _irs_routine in BANK8

    None.

Critical Paths under _main in BANK9

    None.

Critical Paths under _irs_routine in BANK9

    None.

Critical Paths under _main in BANK10

    None.

Critical Paths under _irs_routine in BANK10

    None.

Critical Paths under _main in BANK11

    None.

Critical Paths under _irs_routine in BANK11

    None.

Critical Paths under _main in BANK12

    None.

Critical Paths under _irs_routine in BANK12

    None.

Call Graph Tables:

 ---------------------------------------------------------------------------------
 (Depth) Function   	        Calls       Base Space   Used Autos Params    Refs
 ---------------------------------------------------------------------------------
 (0) _main                                                 0     0      0       0
                         _Enable_INT
                               _Init
                            _Pull_Up
 ---------------------------------------------------------------------------------
 (1) _Pull_Up                                              0     0      0       0
 ---------------------------------------------------------------------------------
 (1) _Init                                                 0     0      0       0
 ---------------------------------------------------------------------------------
 (1) _Enable_INT                                           0     0      0       0
 ---------------------------------------------------------------------------------
 Estimated maximum stack depth 1
 ---------------------------------------------------------------------------------
 (Depth) Function   	        Calls       Base Space   Used Autos Params    Refs
 ---------------------------------------------------------------------------------
 (2) _irs_routine                                          0     0      0     745
                            _i2c_isr
                              _sound
 ---------------------------------------------------------------------------------
 (3) _sound                                                2     0      2     409
                                              6 COMMON     2     0      2
                            ___lwmod
 ---------------------------------------------------------------------------------
 (4) ___lwmod                                              6     2      4     311
                                              0 COMMON     6     2      4
 ---------------------------------------------------------------------------------
 (3) _i2c_isr                                              2     2      0     336
                                              8 COMMON     2     2      0
           _iicPeripheralInterruptRx
           _iicPeripheralInterruptTx
 ---------------------------------------------------------------------------------
 (4) _iicPeripheralInterruptTx                             8     5      3     288
                                              0 COMMON     8     5      3
 ---------------------------------------------------------------------------------
 (4) _iicPeripheralInterruptRx                             3     3      0      25
                                              0 COMMON     3     3      0
 ---------------------------------------------------------------------------------
 Estimated maximum stack depth 4
 ---------------------------------------------------------------------------------

 Call Graph Graphs:

 _main (ROOT)
   _Enable_INT
   _Init
   _Pull_Up

 _irs_routine (ROOT)
   _i2c_isr
     _iicPeripheralInterruptRx
     _iicPeripheralInterruptTx
   _sound
     ___lwmod

 Address spaces:
Name               Size   Autos  Total    Cost      Usage
BIGRAM             3F0      0       0       0        0.0%
EEDATA             100      0       0       0        0.0%
NULL                 0      0       0       0        0.0%
CODE                 0      0       0       0        0.0%
BITCOMMON            E      0       0       1        0.0%
BITSFR0              0      0       0       1        0.0%
SFR0                 0      0       0       1        0.0%
COMMON               E      A       D       2       92.9%
BITSFR1              0      0       0       2        0.0%
SFR1                 0      0       0       2        0.0%
BITSFR2              0      0       0       3        0.0%
SFR2                 0      0       0       3        0.0%
STACK                0      0       0       3        0.0%
BITBANK0            50      0       0       4        0.0%
BITSFR3              0      0       0       4        0.0%
SFR3                 0      0       0       4        0.0%
BANK0               50      0      1A       5       32.5%
BITSFR4              0      0       0       5        0.0%
SFR4                 0      0       0       5        0.0%
BITBANK1            50      0       0       6        0.0%
BITSFR5              0      0       0       6        0.0%
SFR5                 0      0       0       6        0.0%
BANK1               50      0       0       7        0.0%
BITSFR6              0      0       0       7        0.0%
SFR6                 0      0       0       7        0.0%
BITBANK2            50      0       0       8        0.0%
BITSFR7              0      0       0       8        0.0%
SFR7                 0      0       0       8        0.0%
BANK2               50      0       0       9        0.0%
BITSFR8              0      0       0       9        0.0%
SFR8                 0      0       0       9        0.0%
BITBANK3            50      0       0      10        0.0%
BITSFR9              0      0       0      10        0.0%
SFR9                 0      0       0      10        0.0%
BANK3               50      0       0      11        0.0%
BITSFR10             0      0       0      11        0.0%
SFR10                0      0       0      11        0.0%
BITBANK4            50      0       0      12        0.0%
BITSFR11             0      0       0      12        0.0%
SFR11                0      0       0      12        0.0%
BANK4               50      0       0      13        0.0%
BITSFR12             0      0       0      13        0.0%
SFR12                0      0       0      13        0.0%
BITBANK5            50      0       0      14        0.0%
BITSFR13             0      0       0      14        0.0%
SFR13                0      0       0      14        0.0%
BANK5               50      0       0      15        0.0%
BITSFR14             0      0       0      15        0.0%
SFR14                0      0       0      15        0.0%
BITBANK6            50      0       0      16        0.0%
BITSFR15             0      0       0      16        0.0%
SFR15                0      0       0      16        0.0%
BANK6               50      0       0      17        0.0%
BITSFR16             0      0       0      17        0.0%
SFR16                0      0       0      17        0.0%
BITBANK7            50      0       0      18        0.0%
BITSFR17             0      0       0      18        0.0%
SFR17                0      0       0      18        0.0%
BANK7               50      0       0      19        0.0%
BITSFR18             0      0       0      19        0.0%
SFR18                0      0       0      19        0.0%
BITSFR19             0      0       0      20        0.0%
SFR19                0      0       0      20        0.0%
ABS                  0      0      27      20        0.0%
BITBANK8            50      0       0      21        0.0%
BITSFR20             0      0       0      21        0.0%
SFR20                0      0       0      21        0.0%
BANK8               50      0       0      22        0.0%
BITSFR21             0      0       0      22        0.0%
SFR21                0      0       0      22        0.0%
BITBANK9            50      0       0      23        0.0%
BITSFR22             0      0       0      23        0.0%
SFR22                0      0       0      23        0.0%
BANK9               50      0       0      24        0.0%
BITSFR23             0      0       0      24        0.0%
SFR23                0      0       0      24        0.0%
BITBANK10           50      0       0      25        0.0%
BITSFR24             0      0       0      25        0.0%
SFR24                0      0       0      25        0.0%
BANK10              50      0       0      26        0.0%
BITSFR25             0      0       0      26        0.0%
SFR25                0      0       0      26        0.0%
BITBANK11           50      0       0      27        0.0%
BITSFR26             0      0       0      27        0.0%
SFR26                0      0       0      27        0.0%
BANK11              50      0       0      28        0.0%
BITSFR27             0      0       0      28        0.0%
SFR27                0      0       0      28        0.0%
BITBANK12           30      0       0      29        0.0%
BITSFR28             0      0       0      29        0.0%
SFR28                0      0       0      29        0.0%
BANK12              30      0       0      30        0.0%
BITSFR29             0      0       0      30        0.0%
SFR29                0      0       0      30        0.0%
BITSFR30             0      0       0      31        0.0%
SFR30                0      0       0      31        0.0%
DATA                 0      0      27      31        0.0%
BITSFR31             0      0       0      32        0.0%
SFR31                0      0       0      32        0.0%


Microchip Technology PIC Macro Assembler V2.10 build 88905656 
Symbol Table                                                                                   Mon Sep 07 16:46:59 2020

 __end_of_iicPeripheralInterruptRx 0160   __end_of_iicPeripheralInterruptTx 00A8  
                      _SSPSTATbits 0214                                 l90 0177  
                               l99 019B                                l102 01A3  
                              l105 01AC                                _GIE 005F  
                              _idx 0034                                wreg 0009  
                             l1201 0163                               l1211 0176  
                             l1203 016C                               l1205 016F  
                             l1207 0171                               l1161 0198  
                             l1209 0174                               l1155 018D  
                             l1165 019C                               l1157 0195  
                             l1173 01AA                               l1167 019E  
                             l1159 0197                               l1169 01A2  
                             l1199 0160                               _LATA 010C  
                             _LATB 010D                               _LATC 010E  
                             _PIE1 0091                               _PEIE 005E  
                             _PIR1 0011                               i1l82 012F  
                             i1l74 0037                               i1l85 0143  
                             i1l79 00E6                               _TMR2 001A  
                             _Init 018D                               _main 0160  
                             fsr0h 0005                               fsr1h 0007  
                             fsr0l 0004                               indf1 0001  
                             fsr1l 0006                               btemp 007E  
                             start 0039                    __end_of_i2c_isr 0144  
                       _Enable_INT 019C                              ?_Init 0070  
                  __end_of_Pull_Up 01AD                              ?_main 0070  
                            _T1CON 0018                              i1l120 00A5  
                            i1l121 006A                              i1l131 00A7  
                            i1l123 006F                              i1l140 015F  
                            i1l134 014A                              i1l126 0081  
                            i1l136 014E                              i1l137 0150  
                            i1l139 0155                    __end_of___lwmod 011B  
                            i1l625 011A                              u30_20 0155  
                            u30_21 0154                              u31_20 005E  
                            u31_21 005D                              u32_20 006F  
                            u32_21 006E                              u40_25 010C  
                            u33_20 0086                              u41_20 0116  
                            u33_21 0085                              u41_21 0115  
                            _TMR1H 0017                              _TMR1L 0016  
                            u34_20 009A                              u42_20 00B6  
                            u50_20 000B                              u34_21 0099  
                            u42_21 00B5                              u50_21 000A  
                            u34_25 0096                              u35_20 00A5  
                            u43_20 00DA                              u51_20 0015  
                            u35_21 00A4                              u43_21 00D9  
                            u51_21 0012                              _PORTA 000C  
                            _PORTB 000D                              _PORTC 000E  
                            u43_25 00D6                              u36_20 00ED  
                            u44_20 00E4                              u36_21 00EC  
                            u44_21 00E1                              u52_24 0017  
                            u29_20 014E                              u53_20 0021  
                            u29_21 014D                              u53_21 0020  
                            u45_24 00E6                              u37_25 00F1  
                            u46_20 0120                              u38_20 00FD  
                            u54_20 0034                              u46_21 011F  
                            u38_21 00FC                              u54_21 0033  
                            u47_20 0124                              u39_20 0107  
                            u47_21 0123                              u39_21 0106  
                            u39_25 0103                              u48_20 0133  
                            u48_21 0132                              u49_20 0137  
                            u49_21 0136                              _TRISA 008C  
                            _TRISB 008D                              _TRISC 008E  
        iicPeripheralInterruptTx@i 0077                              _cnt_1 0038  
                            _cnt_2 0036                              _count 007C  
                            _voice 0020                              _sound 00A8  
                            status 0003                              wtemp0 007E  
                  __initialization 003B                       __end_of_Init 019C  
                     __end_of_main 0179                             ??_Init 0000  
                     ?_irs_routine 0070       iicPeripheralInterruptRx@data 0072  
                           ??_main 0000       iicPeripheralInterruptTx@data 0070  
     iicPeripheralInterruptTx@size 0072  __size_of_iicPeripheralInterruptRx 001C  
__size_of_iicPeripheralInterruptTx 0051                             _ANSELA 018C  
                           _ANSELB 018D                             ?_sound 0076  
        ?_iicPeripheralInterruptRx 0070          ?_iicPeripheralInterruptTx 0070  
                           i1l1101 00A0                             i1l1111 00F9  
                           i1l1103 00E7                             i1l1113 00FD  
                           i1l1105 00ED                             i1l1121 0116  
                           i1l1115 0107                             i1l1107 00F0  
                           i1l1131 00BC                             i1l1061 0149  
                           i1l1141 0124                             i1l1117 010B  
                           i1l1109 00F5                             i1l1133 00CC  
                           i1l1125 00A8                             i1l1063 014A  
                           i1l1055 0144                             i1l1143 012A  
                           i1l1119 0110                             i1l1135 00DA  
                           i1l1127 00B6                             i1l1065 0156  
                           i1l1057 0146                             i1l1081 0060  
                           i1l1073 0057                             i1l1145 0133  
                           i1l1153 0141                             i1l1137 011B  
                           i1l1129 00B8                             i1l1067 015B  
                           i1l1059 0148                             i1l1091 0075  
                           i1l1083 0062                             i1l1075 0059  
                           i1l1147 0137                             i1l1139 0120  
                           i1l1069 015C                             i1l1093 0080  
                           i1l1085 0063                             i1l1077 005A  
                           i1l1149 0137                             i1l1181 0019  
                           i1l1095 0086                             i1l1087 0069  
                           i1l1079 005E                             i1l1191 002E  
                           i1l1183 001B                             i1l1175 0006  
                           i1l1097 009A                             i1l1089 0070  
                           i1l1193 0030                             i1l1177 000B  
                           i1l1185 001D                             i1l1099 009E  
                           i1l1195 0034                             i1l1187 0021  
                           i1l1179 0017                             i1l1189 002C  
                           _OSCCON 0099                             _SSPADD 0212  
                        ??_i2c_isr 0078                          ??_Pull_Up 0000  
                      ?_Enable_INT 0070                          ??___lwmod 0074  
                     __pdataCOMMON 007C            __end_of__initialization 0053  
                   __pcstackCOMMON 0070                       __pidataBANK0 0179  
                    __end_of_sound 00E7                     _OPTION_REGbits 0095  
                          ??_sound 0078                __size_of_Enable_INT 0008  
                       __pbssBANK0 0034                         __pmaintext 0160  
                       __pintentry 0004                            _IICAddr 007A  
             __size_of_irs_routine 0035                            _SSP1BUF 0211  
                          _SSPCON1 0215                            _SSPSTAT 0214  
                          _i2c_isr 011B                            _Pull_Up 01AA  
                          ___lwmod 00E7                            __ptext1 01AA  
                          __ptext2 018D                            __ptext3 019C  
                          __ptext5 00A8                            __ptext6 00E7  
                          __ptext7 011B                            __ptext8 0057  
                          __ptext9 0144                          _T1CONbits 0018  
             end_of_initialization 0053                            init_ram 01A4  
                          initloop 01A5                       ??_Enable_INT 0000  
                        _TRISCbits 008E                 __end_of_Enable_INT 01A4  
                    __pidataCOMMON 01AD                start_initialization 003B  
         _iicPeripheralInterruptRx 0144           _iicPeripheralInterruptTx 0057  
                      __pdataBANK0 0020                        __pbssCOMMON 007A  
                        ___latbits 0002                      __pcstackBANK0 0000  
                         ?_i2c_isr 0070                           ?_Pull_Up 0070  
                         ?___lwmod 0070                      ??_irs_routine 007A  
                   __size_of_sound 003F                           _LATBbits 010D  
                         _PIE1bits 0091                           _PIR1bits 0011  
              __end_of_irs_routine 0039                   __size_of_i2c_isr 0029  
                       sound@gate1 0076                   __size_of_Pull_Up 0003  
       ??_iicPeripheralInterruptRx 0070         ??_iicPeripheralInterruptTx 0073  
                 __size_of___lwmod 0034                      __size_of_Init 000F  
                    __size_of_main 0019                           _recvData 007B  
                         int$flags 007E                        _irs_routine 0004  
                       _INTCONbits 000B                           intlevel1 0000  
                 ___lwmod@dividend 0072                         _OSCCONbits 0099  
                  ___lwmod@divisor 0070                    ___lwmod@counter 0075  
                      _SSPCON1bits 0215                        _SSPCON2bits 0216  
                       _SSPCONbits 0215  
