

Microchip MPLAB XC8 Assembler V2.10 build 88905656 
                                                                                               Fri Aug 21 12:58:22 2020

Microchip MPLAB XC8 C Compiler v2.10 (Free license) build 20190730164152 Og1 
     1                           	processor	16F18854
     2                           	opt	pw 120
     3                           	opt	flic
     4                           	psect	idataBANK0,global,class=CODE,delta=2
     5                           	psect	cinit,global,class=CODE,merge=1,delta=2
     6                           	psect	dataBANK0,global,class=BANK0,space=1,delta=1
     7                           	psect	inittext,global,class=CODE,delta=2
     8                           	psect	cstackCOMMON,global,class=COMMON,space=1,delta=1
     9                           	psect	cstackBANK0,global,class=BANK0,space=1,delta=1
    10                           	psect	maintext,global,class=CODE,merge=1,split=1,delta=2
    11                           	psect	text1,local,class=CODE,merge=1,delta=2
    12                           	psect	text2,local,class=CODE,merge=1,delta=2
    13                           	psect	text3,local,class=CODE,merge=1,delta=2
    14                           	psect	text4,local,class=CODE,merge=1,delta=2
    15                           	psect	text5,local,class=CODE,merge=1,delta=2
    16                           	psect	text6,local,class=CODE,merge=1,delta=2
    17                           	psect	text7,local,class=CODE,merge=1,delta=2
    18                           	psect	text8,local,class=CODE,merge=1,delta=2,group=1
    19                           	psect	text9,local,class=CODE,merge=1,delta=2
    20                           	psect	text10,local,class=CODE,merge=1,delta=2
    21                           	psect	text11,local,class=CODE,merge=1,delta=2
    22                           	psect	text12,local,class=CODE,merge=1,delta=2
    23                           	psect	text13,local,class=CODE,merge=1,delta=2
    24                           	psect	text14,local,class=CODE,merge=1,delta=2
    25                           	dabs	1,0x7E,2
    26  0000                     
    27                           ; Version 2.10
    28                           ; Generated 31/07/2019 GMT
    29                           ; 
    30                           ; Copyright © 2019, Microchip Technology Inc. and its subsidiaries ("Microchip")
    31                           ; All rights reserved.
    32                           ; 
    33                           ; This software is developed by Microchip Technology Inc. and its subsidiaries ("Microch
      +                          ip").
    34                           ; 
    35                           ; Redistribution and use in source and binary forms, with or without modification, are
    36                           ; permitted provided that the following conditions are met:
    37                           ; 
    38                           ;     1. Redistributions of source code must retain the above copyright notice, this lis
      +                          t of
    39                           ;        conditions and the following disclaimer.
    40                           ; 
    41                           ;     2. Redistributions in binary form must reproduce the above copyright notice, this 
      +                          list
    42                           ;        of conditions and the following disclaimer in the documentation and/or other
    43                           ;        materials provided with the distribution.
    44                           ; 
    45                           ;     3. Microchip's name may not be used to endorse or promote products derived from th
      +                          is
    46                           ;        software without specific prior written permission.
    47                           ; 
    48                           ; THIS SOFTWARE IS PROVIDED BY MICROCHIP "AS IS" AND ANY EXPRESS OR IMPLIED WARRANTIES,
    49                           ; INCLUDING, BUT NOT LIMITED TO, THE IMPLIED WARRANTIES OF MERCHANTABILITY AND FITNESS F
      +                          OR
    50                           ; PURPOSE ARE DISCLAIMED.  IN NO EVENT SHALL MICROCHIP BE LIABLE FOR ANY DIRECT, INDIREC
      +                          T,
    51                           ; INCIDENTAL, SPECIAL, EXEMPLARY, OR CONSEQUENTIAL DAMAGES (INCLUDING BUT NOT LIMITED TO
    52                           ; PROCUREMENT OF SUBSTITUTE GOODS OR SERVICES; LOSS OF USE, DATA OR PROFITS; OR BUSINESS
    53                           ; INTERRUPTION) HOWSOEVER CAUSED AND ON ANY THEORY OF LIABILITY, WHETHER IN CONTRACT, ST
      +                          RICT
    54                           ; LIABILITY, OR TORT (INCLUDING NEGLIGENCE OR OTHERWISE) ARISING IN ANY WAY OUT OF THE U
      +                          SE OF
    55                           ; THIS SOFTWARE, EVEN IF ADVISED OF THE POSSIBILITY OF SUCH DAMAGE.
    56                           ; 
    57                           ; 
    58                           ; Code-generator required, PIC16F18854 Definitions
    59                           ; 
    60                           ; SFR Addresses
    61  0000                     	;# 
    62  0001                     	;# 
    63  0002                     	;# 
    64  0003                     	;# 
    65  0004                     	;# 
    66  0005                     	;# 
    67  0006                     	;# 
    68  0007                     	;# 
    69  0008                     	;# 
    70  0009                     	;# 
    71  000A                     	;# 
    72  000B                     	;# 
    73  000C                     	;# 
    74  000D                     	;# 
    75  000E                     	;# 
    76  0010                     	;# 
    77  0011                     	;# 
    78  0012                     	;# 
    79  0013                     	;# 
    80  0016                     	;# 
    81  0017                     	;# 
    82  0018                     	;# 
    83  001C                     	;# 
    84  001C                     	;# 
    85  001D                     	;# 
    86  001D                     	;# 
    87  001E                     	;# 
    88  001F                     	;# 
    89  008C                     	;# 
    90  008C                     	;# 
    91  008D                     	;# 
    92  008E                     	;# 
    93  008E                     	;# 
    94  008F                     	;# 
    95  0090                     	;# 
    96  0090                     	;# 
    97  0091                     	;# 
    98  0093                     	;# 
    99  0094                     	;# 
   100  0095                     	;# 
   101  0096                     	;# 
   102  0097                     	;# 
   103  0098                     	;# 
   104  0099                     	;# 
   105  009A                     	;# 
   106  009B                     	;# 
   107  009C                     	;# 
   108  009D                     	;# 
   109  009E                     	;# 
   110  010C                     	;# 
   111  010D                     	;# 
   112  010E                     	;# 
   113  010E                     	;# 
   114  010F                     	;# 
   115  0110                     	;# 
   116  0110                     	;# 
   117  0111                     	;# 
   118  0112                     	;# 
   119  0112                     	;# 
   120  0113                     	;# 
   121  0114                     	;# 
   122  0114                     	;# 
   123  0115                     	;# 
   124  0116                     	;# 
   125  0116                     	;# 
   126  0117                     	;# 
   127  0119                     	;# 
   128  0119                     	;# 
   129  0119                     	;# 
   130  011A                     	;# 
   131  011A                     	;# 
   132  011A                     	;# 
   133  011B                     	;# 
   134  011B                     	;# 
   135  011B                     	;# 
   136  011B                     	;# 
   137  011B                     	;# 
   138  011C                     	;# 
   139  011C                     	;# 
   140  011C                     	;# 
   141  011D                     	;# 
   142  011D                     	;# 
   143  011D                     	;# 
   144  011E                     	;# 
   145  011E                     	;# 
   146  011E                     	;# 
   147  011F                     	;# 
   148  011F                     	;# 
   149  011F                     	;# 
   150  011F                     	;# 
   151  011F                     	;# 
   152  018C                     	;# 
   153  018D                     	;# 
   154  018E                     	;# 
   155  018F                     	;# 
   156  0190                     	;# 
   157  0191                     	;# 
   158  0192                     	;# 
   159  0196                     	;# 
   160  0197                     	;# 
   161  0198                     	;# 
   162  0199                     	;# 
   163  019A                     	;# 
   164  019B                     	;# 
   165  019C                     	;# 
   166  020C                     	;# 
   167  020C                     	;# 
   168  020D                     	;# 
   169  020E                     	;# 
   170  020F                     	;# 
   171  020F                     	;# 
   172  0210                     	;# 
   173  0210                     	;# 
   174  0211                     	;# 
   175  0211                     	;# 
   176  0212                     	;# 
   177  0212                     	;# 
   178  0213                     	;# 
   179  0214                     	;# 
   180  0215                     	;# 
   181  0215                     	;# 
   182  0216                     	;# 
   183  0216                     	;# 
   184  0217                     	;# 
   185  0217                     	;# 
   186  0218                     	;# 
   187  0218                     	;# 
   188  0219                     	;# 
   189  021A                     	;# 
   190  021B                     	;# 
   191  021B                     	;# 
   192  021C                     	;# 
   193  021C                     	;# 
   194  021D                     	;# 
   195  021D                     	;# 
   196  021E                     	;# 
   197  021F                     	;# 
   198  028C                     	;# 
   199  028C                     	;# 
   200  028D                     	;# 
   201  028D                     	;# 
   202  028E                     	;# 
   203  028F                     	;# 
   204  0290                     	;# 
   205  0290                     	;# 
   206  0291                     	;# 
   207  0292                     	;# 
   208  0292                     	;# 
   209  0293                     	;# 
   210  0293                     	;# 
   211  0294                     	;# 
   212  0295                     	;# 
   213  0296                     	;# 
   214  0296                     	;# 
   215  0297                     	;# 
   216  0298                     	;# 
   217  0298                     	;# 
   218  0299                     	;# 
   219  0299                     	;# 
   220  029A                     	;# 
   221  029B                     	;# 
   222  029C                     	;# 
   223  029C                     	;# 
   224  029D                     	;# 
   225  030C                     	;# 
   226  030C                     	;# 
   227  030D                     	;# 
   228  030E                     	;# 
   229  030F                     	;# 
   230  0310                     	;# 
   231  0310                     	;# 
   232  0311                     	;# 
   233  0312                     	;# 
   234  0313                     	;# 
   235  0314                     	;# 
   236  0314                     	;# 
   237  0315                     	;# 
   238  0316                     	;# 
   239  0317                     	;# 
   240  0318                     	;# 
   241  0318                     	;# 
   242  0319                     	;# 
   243  031A                     	;# 
   244  031B                     	;# 
   245  031C                     	;# 
   246  031C                     	;# 
   247  031D                     	;# 
   248  031E                     	;# 
   249  031F                     	;# 
   250  038C                     	;# 
   251  038C                     	;# 
   252  038D                     	;# 
   253  038E                     	;# 
   254  0390                     	;# 
   255  0390                     	;# 
   256  0391                     	;# 
   257  0392                     	;# 
   258  040C                     	;# 
   259  040D                     	;# 
   260  040E                     	;# 
   261  040F                     	;# 
   262  0410                     	;# 
   263  0411                     	;# 
   264  0416                     	;# 
   265  0416                     	;# 
   266  0417                     	;# 
   267  0418                     	;# 
   268  0418                     	;# 
   269  0419                     	;# 
   270  041A                     	;# 
   271  041A                     	;# 
   272  041B                     	;# 
   273  041C                     	;# 
   274  041C                     	;# 
   275  041D                     	;# 
   276  041E                     	;# 
   277  041F                     	;# 
   278  048C                     	;# 
   279  048C                     	;# 
   280  048D                     	;# 
   281  048E                     	;# 
   282  048F                     	;# 
   283  048F                     	;# 
   284  0490                     	;# 
   285  0491                     	;# 
   286  0492                     	;# 
   287  0492                     	;# 
   288  0493                     	;# 
   289  0494                     	;# 
   290  0495                     	;# 
   291  0495                     	;# 
   292  0496                     	;# 
   293  0497                     	;# 
   294  0498                     	;# 
   295  0499                     	;# 
   296  049A                     	;# 
   297  049B                     	;# 
   298  049C                     	;# 
   299  049D                     	;# 
   300  050C                     	;# 
   301  050C                     	;# 
   302  050D                     	;# 
   303  050E                     	;# 
   304  050F                     	;# 
   305  050F                     	;# 
   306  0510                     	;# 
   307  0511                     	;# 
   308  0512                     	;# 
   309  0512                     	;# 
   310  0513                     	;# 
   311  0514                     	;# 
   312  0515                     	;# 
   313  0515                     	;# 
   314  0516                     	;# 
   315  0517                     	;# 
   316  0518                     	;# 
   317  0519                     	;# 
   318  051A                     	;# 
   319  051B                     	;# 
   320  051C                     	;# 
   321  051D                     	;# 
   322  058C                     	;# 
   323  058C                     	;# 
   324  058D                     	;# 
   325  058E                     	;# 
   326  058F                     	;# 
   327  058F                     	;# 
   328  0590                     	;# 
   329  0591                     	;# 
   330  0592                     	;# 
   331  0593                     	;# 
   332  060C                     	;# 
   333  060D                     	;# 
   334  060E                     	;# 
   335  060F                     	;# 
   336  0610                     	;# 
   337  0611                     	;# 
   338  0612                     	;# 
   339  0613                     	;# 
   340  0614                     	;# 
   341  0616                     	;# 
   342  0617                     	;# 
   343  0618                     	;# 
   344  0619                     	;# 
   345  061A                     	;# 
   346  061B                     	;# 
   347  061C                     	;# 
   348  061D                     	;# 
   349  061E                     	;# 
   350  068C                     	;# 
   351  068D                     	;# 
   352  068E                     	;# 
   353  068F                     	;# 
   354  0690                     	;# 
   355  0691                     	;# 
   356  0692                     	;# 
   357  0693                     	;# 
   358  0694                     	;# 
   359  070C                     	;# 
   360  070D                     	;# 
   361  070E                     	;# 
   362  070F                     	;# 
   363  0710                     	;# 
   364  0711                     	;# 
   365  0712                     	;# 
   366  0713                     	;# 
   367  0714                     	;# 
   368  0716                     	;# 
   369  0717                     	;# 
   370  0718                     	;# 
   371  0719                     	;# 
   372  071A                     	;# 
   373  071B                     	;# 
   374  071C                     	;# 
   375  071D                     	;# 
   376  071E                     	;# 
   377  0796                     	;# 
   378  0797                     	;# 
   379  0798                     	;# 
   380  0799                     	;# 
   381  079A                     	;# 
   382  079B                     	;# 
   383  080C                     	;# 
   384  080D                     	;# 
   385  080E                     	;# 
   386  080F                     	;# 
   387  0810                     	;# 
   388  0811                     	;# 
   389  0812                     	;# 
   390  0813                     	;# 
   391  0814                     	;# 
   392  081A                     	;# 
   393  081B                     	;# 
   394  081C                     	;# 
   395  081D                     	;# 
   396  081E                     	;# 
   397  081F                     	;# 
   398  088C                     	;# 
   399  088D                     	;# 
   400  088E                     	;# 
   401  088F                     	;# 
   402  0890                     	;# 
   403  0891                     	;# 
   404  0892                     	;# 
   405  0893                     	;# 
   406  0895                     	;# 
   407  0896                     	;# 
   408  0897                     	;# 
   409  0898                     	;# 
   410  0899                     	;# 
   411  089A                     	;# 
   412  089B                     	;# 
   413  090C                     	;# 
   414  090E                     	;# 
   415  090F                     	;# 
   416  091F                     	;# 
   417  098F                     	;# 
   418  098F                     	;# 
   419  0990                     	;# 
   420  0991                     	;# 
   421  0992                     	;# 
   422  0993                     	;# 
   423  0994                     	;# 
   424  0995                     	;# 
   425  0996                     	;# 
   426  0997                     	;# 
   427  0E0F                     	;# 
   428  0E10                     	;# 
   429  0E11                     	;# 
   430  0E12                     	;# 
   431  0E13                     	;# 
   432  0E14                     	;# 
   433  0E15                     	;# 
   434  0E16                     	;# 
   435  0E17                     	;# 
   436  0E18                     	;# 
   437  0E19                     	;# 
   438  0E1A                     	;# 
   439  0E1B                     	;# 
   440  0E1C                     	;# 
   441  0E1D                     	;# 
   442  0E1E                     	;# 
   443  0E1F                     	;# 
   444  0E20                     	;# 
   445  0E21                     	;# 
   446  0E22                     	;# 
   447  0E23                     	;# 
   448  0E24                     	;# 
   449  0E25                     	;# 
   450  0E26                     	;# 
   451  0E27                     	;# 
   452  0E28                     	;# 
   453  0E29                     	;# 
   454  0E2A                     	;# 
   455  0E2B                     	;# 
   456  0E2C                     	;# 
   457  0E2D                     	;# 
   458  0E2E                     	;# 
   459  0E2F                     	;# 
   460  0E30                     	;# 
   461  0E31                     	;# 
   462  0E32                     	;# 
   463  0E33                     	;# 
   464  0E34                     	;# 
   465  0E35                     	;# 
   466  0E36                     	;# 
   467  0E37                     	;# 
   468  0E8F                     	;# 
   469  0E90                     	;# 
   470  0E91                     	;# 
   471  0E92                     	;# 
   472  0E93                     	;# 
   473  0E94                     	;# 
   474  0E95                     	;# 
   475  0E96                     	;# 
   476  0E97                     	;# 
   477  0E9C                     	;# 
   478  0E9D                     	;# 
   479  0E9E                     	;# 
   480  0EA1                     	;# 
   481  0EA2                     	;# 
   482  0EA3                     	;# 
   483  0EA4                     	;# 
   484  0EA5                     	;# 
   485  0EA9                     	;# 
   486  0EAA                     	;# 
   487  0EAB                     	;# 
   488  0EAC                     	;# 
   489  0EB1                     	;# 
   490  0EB2                     	;# 
   491  0EB3                     	;# 
   492  0EB8                     	;# 
   493  0EB9                     	;# 
   494  0EBA                     	;# 
   495  0EBB                     	;# 
   496  0EBC                     	;# 
   497  0EBD                     	;# 
   498  0EBE                     	;# 
   499  0EC3                     	;# 
   500  0EC5                     	;# 
   501  0EC6                     	;# 
   502  0EC7                     	;# 
   503  0EC8                     	;# 
   504  0EC9                     	;# 
   505  0ECA                     	;# 
   506  0ECB                     	;# 
   507  0ECC                     	;# 
   508  0F10                     	;# 
   509  0F11                     	;# 
   510  0F12                     	;# 
   511  0F13                     	;# 
   512  0F14                     	;# 
   513  0F15                     	;# 
   514  0F16                     	;# 
   515  0F17                     	;# 
   516  0F18                     	;# 
   517  0F19                     	;# 
   518  0F1A                     	;# 
   519  0F1B                     	;# 
   520  0F1C                     	;# 
   521  0F1D                     	;# 
   522  0F1E                     	;# 
   523  0F1F                     	;# 
   524  0F20                     	;# 
   525  0F21                     	;# 
   526  0F22                     	;# 
   527  0F23                     	;# 
   528  0F24                     	;# 
   529  0F25                     	;# 
   530  0F26                     	;# 
   531  0F27                     	;# 
   532  0F38                     	;# 
   533  0F39                     	;# 
   534  0F3A                     	;# 
   535  0F3B                     	;# 
   536  0F3C                     	;# 
   537  0F3D                     	;# 
   538  0F3E                     	;# 
   539  0F3F                     	;# 
   540  0F40                     	;# 
   541  0F41                     	;# 
   542  0F43                     	;# 
   543  0F44                     	;# 
   544  0F45                     	;# 
   545  0F46                     	;# 
   546  0F47                     	;# 
   547  0F48                     	;# 
   548  0F49                     	;# 
   549  0F4A                     	;# 
   550  0F4B                     	;# 
   551  0F4C                     	;# 
   552  0F4E                     	;# 
   553  0F4F                     	;# 
   554  0F50                     	;# 
   555  0F51                     	;# 
   556  0F52                     	;# 
   557  0F53                     	;# 
   558  0F54                     	;# 
   559  0F55                     	;# 
   560  0F56                     	;# 
   561  0F57                     	;# 
   562  0F65                     	;# 
   563  0F68                     	;# 
   564  0F69                     	;# 
   565  0F6A                     	;# 
   566  0F6B                     	;# 
   567  0FE4                     	;# 
   568  0FE5                     	;# 
   569  0FE6                     	;# 
   570  0FE7                     	;# 
   571  0FE8                     	;# 
   572  0FE9                     	;# 
   573  0FEA                     	;# 
   574  0FEB                     	;# 
   575  0FED                     	;# 
   576  0FEE                     	;# 
   577  0FEF                     	;# 
   578  0000                     	;# 
   579  0001                     	;# 
   580  0002                     	;# 
   581  0003                     	;# 
   582  0004                     	;# 
   583  0005                     	;# 
   584  0006                     	;# 
   585  0007                     	;# 
   586  0008                     	;# 
   587  0009                     	;# 
   588  000A                     	;# 
   589  000B                     	;# 
   590  000C                     	;# 
   591  000D                     	;# 
   592  000E                     	;# 
   593  0010                     	;# 
   594  0011                     	;# 
   595  0012                     	;# 
   596  0013                     	;# 
   597  0016                     	;# 
   598  0017                     	;# 
   599  0018                     	;# 
   600  001C                     	;# 
   601  001C                     	;# 
   602  001D                     	;# 
   603  001D                     	;# 
   604  001E                     	;# 
   605  001F                     	;# 
   606  008C                     	;# 
   607  008C                     	;# 
   608  008D                     	;# 
   609  008E                     	;# 
   610  008E                     	;# 
   611  008F                     	;# 
   612  0090                     	;# 
   613  0090                     	;# 
   614  0091                     	;# 
   615  0093                     	;# 
   616  0094                     	;# 
   617  0095                     	;# 
   618  0096                     	;# 
   619  0097                     	;# 
   620  0098                     	;# 
   621  0099                     	;# 
   622  009A                     	;# 
   623  009B                     	;# 
   624  009C                     	;# 
   625  009D                     	;# 
   626  009E                     	;# 
   627  010C                     	;# 
   628  010D                     	;# 
   629  010E                     	;# 
   630  010E                     	;# 
   631  010F                     	;# 
   632  0110                     	;# 
   633  0110                     	;# 
   634  0111                     	;# 
   635  0112                     	;# 
   636  0112                     	;# 
   637  0113                     	;# 
   638  0114                     	;# 
   639  0114                     	;# 
   640  0115                     	;# 
   641  0116                     	;# 
   642  0116                     	;# 
   643  0117                     	;# 
   644  0119                     	;# 
   645  0119                     	;# 
   646  0119                     	;# 
   647  011A                     	;# 
   648  011A                     	;# 
   649  011A                     	;# 
   650  011B                     	;# 
   651  011B                     	;# 
   652  011B                     	;# 
   653  011B                     	;# 
   654  011B                     	;# 
   655  011C                     	;# 
   656  011C                     	;# 
   657  011C                     	;# 
   658  011D                     	;# 
   659  011D                     	;# 
   660  011D                     	;# 
   661  011E                     	;# 
   662  011E                     	;# 
   663  011E                     	;# 
   664  011F                     	;# 
   665  011F                     	;# 
   666  011F                     	;# 
   667  011F                     	;# 
   668  011F                     	;# 
   669  018C                     	;# 
   670  018D                     	;# 
   671  018E                     	;# 
   672  018F                     	;# 
   673  0190                     	;# 
   674  0191                     	;# 
   675  0192                     	;# 
   676  0196                     	;# 
   677  0197                     	;# 
   678  0198                     	;# 
   679  0199                     	;# 
   680  019A                     	;# 
   681  019B                     	;# 
   682  019C                     	;# 
   683  020C                     	;# 
   684  020C                     	;# 
   685  020D                     	;# 
   686  020E                     	;# 
   687  020F                     	;# 
   688  020F                     	;# 
   689  0210                     	;# 
   690  0210                     	;# 
   691  0211                     	;# 
   692  0211                     	;# 
   693  0212                     	;# 
   694  0212                     	;# 
   695  0213                     	;# 
   696  0214                     	;# 
   697  0215                     	;# 
   698  0215                     	;# 
   699  0216                     	;# 
   700  0216                     	;# 
   701  0217                     	;# 
   702  0217                     	;# 
   703  0218                     	;# 
   704  0218                     	;# 
   705  0219                     	;# 
   706  021A                     	;# 
   707  021B                     	;# 
   708  021B                     	;# 
   709  021C                     	;# 
   710  021C                     	;# 
   711  021D                     	;# 
   712  021D                     	;# 
   713  021E                     	;# 
   714  021F                     	;# 
   715  028C                     	;# 
   716  028C                     	;# 
   717  028D                     	;# 
   718  028D                     	;# 
   719  028E                     	;# 
   720  028F                     	;# 
   721  0290                     	;# 
   722  0290                     	;# 
   723  0291                     	;# 
   724  0292                     	;# 
   725  0292                     	;# 
   726  0293                     	;# 
   727  0293                     	;# 
   728  0294                     	;# 
   729  0295                     	;# 
   730  0296                     	;# 
   731  0296                     	;# 
   732  0297                     	;# 
   733  0298                     	;# 
   734  0298                     	;# 
   735  0299                     	;# 
   736  0299                     	;# 
   737  029A                     	;# 
   738  029B                     	;# 
   739  029C                     	;# 
   740  029C                     	;# 
   741  029D                     	;# 
   742  030C                     	;# 
   743  030C                     	;# 
   744  030D                     	;# 
   745  030E                     	;# 
   746  030F                     	;# 
   747  0310                     	;# 
   748  0310                     	;# 
   749  0311                     	;# 
   750  0312                     	;# 
   751  0313                     	;# 
   752  0314                     	;# 
   753  0314                     	;# 
   754  0315                     	;# 
   755  0316                     	;# 
   756  0317                     	;# 
   757  0318                     	;# 
   758  0318                     	;# 
   759  0319                     	;# 
   760  031A                     	;# 
   761  031B                     	;# 
   762  031C                     	;# 
   763  031C                     	;# 
   764  031D                     	;# 
   765  031E                     	;# 
   766  031F                     	;# 
   767  038C                     	;# 
   768  038C                     	;# 
   769  038D                     	;# 
   770  038E                     	;# 
   771  0390                     	;# 
   772  0390                     	;# 
   773  0391                     	;# 
   774  0392                     	;# 
   775  040C                     	;# 
   776  040D                     	;# 
   777  040E                     	;# 
   778  040F                     	;# 
   779  0410                     	;# 
   780  0411                     	;# 
   781  0416                     	;# 
   782  0416                     	;# 
   783  0417                     	;# 
   784  0418                     	;# 
   785  0418                     	;# 
   786  0419                     	;# 
   787  041A                     	;# 
   788  041A                     	;# 
   789  041B                     	;# 
   790  041C                     	;# 
   791  041C                     	;# 
   792  041D                     	;# 
   793  041E                     	;# 
   794  041F                     	;# 
   795  048C                     	;# 
   796  048C                     	;# 
   797  048D                     	;# 
   798  048E                     	;# 
   799  048F                     	;# 
   800  048F                     	;# 
   801  0490                     	;# 
   802  0491                     	;# 
   803  0492                     	;# 
   804  0492                     	;# 
   805  0493                     	;# 
   806  0494                     	;# 
   807  0495                     	;# 
   808  0495                     	;# 
   809  0496                     	;# 
   810  0497                     	;# 
   811  0498                     	;# 
   812  0499                     	;# 
   813  049A                     	;# 
   814  049B                     	;# 
   815  049C                     	;# 
   816  049D                     	;# 
   817  050C                     	;# 
   818  050C                     	;# 
   819  050D                     	;# 
   820  050E                     	;# 
   821  050F                     	;# 
   822  050F                     	;# 
   823  0510                     	;# 
   824  0511                     	;# 
   825  0512                     	;# 
   826  0512                     	;# 
   827  0513                     	;# 
   828  0514                     	;# 
   829  0515                     	;# 
   830  0515                     	;# 
   831  0516                     	;# 
   832  0517                     	;# 
   833  0518                     	;# 
   834  0519                     	;# 
   835  051A                     	;# 
   836  051B                     	;# 
   837  051C                     	;# 
   838  051D                     	;# 
   839  058C                     	;# 
   840  058C                     	;# 
   841  058D                     	;# 
   842  058E                     	;# 
   843  058F                     	;# 
   844  058F                     	;# 
   845  0590                     	;# 
   846  0591                     	;# 
   847  0592                     	;# 
   848  0593                     	;# 
   849  060C                     	;# 
   850  060D                     	;# 
   851  060E                     	;# 
   852  060F                     	;# 
   853  0610                     	;# 
   854  0611                     	;# 
   855  0612                     	;# 
   856  0613                     	;# 
   857  0614                     	;# 
   858  0616                     	;# 
   859  0617                     	;# 
   860  0618                     	;# 
   861  0619                     	;# 
   862  061A                     	;# 
   863  061B                     	;# 
   864  061C                     	;# 
   865  061D                     	;# 
   866  061E                     	;# 
   867  068C                     	;# 
   868  068D                     	;# 
   869  068E                     	;# 
   870  068F                     	;# 
   871  0690                     	;# 
   872  0691                     	;# 
   873  0692                     	;# 
   874  0693                     	;# 
   875  0694                     	;# 
   876  070C                     	;# 
   877  070D                     	;# 
   878  070E                     	;# 
   879  070F                     	;# 
   880  0710                     	;# 
   881  0711                     	;# 
   882  0712                     	;# 
   883  0713                     	;# 
   884  0714                     	;# 
   885  0716                     	;# 
   886  0717                     	;# 
   887  0718                     	;# 
   888  0719                     	;# 
   889  071A                     	;# 
   890  071B                     	;# 
   891  071C                     	;# 
   892  071D                     	;# 
   893  071E                     	;# 
   894  0796                     	;# 
   895  0797                     	;# 
   896  0798                     	;# 
   897  0799                     	;# 
   898  079A                     	;# 
   899  079B                     	;# 
   900  080C                     	;# 
   901  080D                     	;# 
   902  080E                     	;# 
   903  080F                     	;# 
   904  0810                     	;# 
   905  0811                     	;# 
   906  0812                     	;# 
   907  0813                     	;# 
   908  0814                     	;# 
   909  081A                     	;# 
   910  081B                     	;# 
   911  081C                     	;# 
   912  081D                     	;# 
   913  081E                     	;# 
   914  081F                     	;# 
   915  088C                     	;# 
   916  088D                     	;# 
   917  088E                     	;# 
   918  088F                     	;# 
   919  0890                     	;# 
   920  0891                     	;# 
   921  0892                     	;# 
   922  0893                     	;# 
   923  0895                     	;# 
   924  0896                     	;# 
   925  0897                     	;# 
   926  0898                     	;# 
   927  0899                     	;# 
   928  089A                     	;# 
   929  089B                     	;# 
   930  090C                     	;# 
   931  090E                     	;# 
   932  090F                     	;# 
   933  091F                     	;# 
   934  098F                     	;# 
   935  098F                     	;# 
   936  0990                     	;# 
   937  0991                     	;# 
   938  0992                     	;# 
   939  0993                     	;# 
   940  0994                     	;# 
   941  0995                     	;# 
   942  0996                     	;# 
   943  0997                     	;# 
   944  0E0F                     	;# 
   945  0E10                     	;# 
   946  0E11                     	;# 
   947  0E12                     	;# 
   948  0E13                     	;# 
   949  0E14                     	;# 
   950  0E15                     	;# 
   951  0E16                     	;# 
   952  0E17                     	;# 
   953  0E18                     	;# 
   954  0E19                     	;# 
   955  0E1A                     	;# 
   956  0E1B                     	;# 
   957  0E1C                     	;# 
   958  0E1D                     	;# 
   959  0E1E                     	;# 
   960  0E1F                     	;# 
   961  0E20                     	;# 
   962  0E21                     	;# 
   963  0E22                     	;# 
   964  0E23                     	;# 
   965  0E24                     	;# 
   966  0E25                     	;# 
   967  0E26                     	;# 
   968  0E27                     	;# 
   969  0E28                     	;# 
   970  0E29                     	;# 
   971  0E2A                     	;# 
   972  0E2B                     	;# 
   973  0E2C                     	;# 
   974  0E2D                     	;# 
   975  0E2E                     	;# 
   976  0E2F                     	;# 
   977  0E30                     	;# 
   978  0E31                     	;# 
   979  0E32                     	;# 
   980  0E33                     	;# 
   981  0E34                     	;# 
   982  0E35                     	;# 
   983  0E36                     	;# 
   984  0E37                     	;# 
   985  0E8F                     	;# 
   986  0E90                     	;# 
   987  0E91                     	;# 
   988  0E92                     	;# 
   989  0E93                     	;# 
   990  0E94                     	;# 
   991  0E95                     	;# 
   992  0E96                     	;# 
   993  0E97                     	;# 
   994  0E9C                     	;# 
   995  0E9D                     	;# 
   996  0E9E                     	;# 
   997  0EA1                     	;# 
   998  0EA2                     	;# 
   999  0EA3                     	;# 
  1000  0EA4                     	;# 
  1001  0EA5                     	;# 
  1002  0EA9                     	;# 
  1003  0EAA                     	;# 
  1004  0EAB                     	;# 
  1005  0EAC                     	;# 
  1006  0EB1                     	;# 
  1007  0EB2                     	;# 
  1008  0EB3                     	;# 
  1009  0EB8                     	;# 
  1010  0EB9                     	;# 
  1011  0EBA                     	;# 
  1012  0EBB                     	;# 
  1013  0EBC                     	;# 
  1014  0EBD                     	;# 
  1015  0EBE                     	;# 
  1016  0EC3                     	;# 
  1017  0EC5                     	;# 
  1018  0EC6                     	;# 
  1019  0EC7                     	;# 
  1020  0EC8                     	;# 
  1021  0EC9                     	;# 
  1022  0ECA                     	;# 
  1023  0ECB                     	;# 
  1024  0ECC                     	;# 
  1025  0F10                     	;# 
  1026  0F11                     	;# 
  1027  0F12                     	;# 
  1028  0F13                     	;# 
  1029  0F14                     	;# 
  1030  0F15                     	;# 
  1031  0F16                     	;# 
  1032  0F17                     	;# 
  1033  0F18                     	;# 
  1034  0F19                     	;# 
  1035  0F1A                     	;# 
  1036  0F1B                     	;# 
  1037  0F1C                     	;# 
  1038  0F1D                     	;# 
  1039  0F1E                     	;# 
  1040  0F1F                     	;# 
  1041  0F20                     	;# 
  1042  0F21                     	;# 
  1043  0F22                     	;# 
  1044  0F23                     	;# 
  1045  0F24                     	;# 
  1046  0F25                     	;# 
  1047  0F26                     	;# 
  1048  0F27                     	;# 
  1049  0F38                     	;# 
  1050  0F39                     	;# 
  1051  0F3A                     	;# 
  1052  0F3B                     	;# 
  1053  0F3C                     	;# 
  1054  0F3D                     	;# 
  1055  0F3E                     	;# 
  1056  0F3F                     	;# 
  1057  0F40                     	;# 
  1058  0F41                     	;# 
  1059  0F43                     	;# 
  1060  0F44                     	;# 
  1061  0F45                     	;# 
  1062  0F46                     	;# 
  1063  0F47                     	;# 
  1064  0F48                     	;# 
  1065  0F49                     	;# 
  1066  0F4A                     	;# 
  1067  0F4B                     	;# 
  1068  0F4C                     	;# 
  1069  0F4E                     	;# 
  1070  0F4F                     	;# 
  1071  0F50                     	;# 
  1072  0F51                     	;# 
  1073  0F52                     	;# 
  1074  0F53                     	;# 
  1075  0F54                     	;# 
  1076  0F55                     	;# 
  1077  0F56                     	;# 
  1078  0F57                     	;# 
  1079  0F65                     	;# 
  1080  0F68                     	;# 
  1081  0F69                     	;# 
  1082  0F6A                     	;# 
  1083  0F6B                     	;# 
  1084  0FE4                     	;# 
  1085  0FE5                     	;# 
  1086  0FE6                     	;# 
  1087  0FE7                     	;# 
  1088  0FE8                     	;# 
  1089  0FE9                     	;# 
  1090  0FEA                     	;# 
  1091  0FEB                     	;# 
  1092  0FED                     	;# 
  1093  0FEE                     	;# 
  1094  0FEF                     	;# 
  1095                           
  1096                           	psect	idataBANK0
  1097  05D4                     __pidataBANK0:	
  1098                           
  1099                           ;initializer for _led_arr
  1100  05D4  34FF               	retlw	255
  1101  05D5  34FF               	retlw	255
  1102  05D6  34FF               	retlw	255
  1103  05D7  34FF               	retlw	255
  1104  05D8  34FF               	retlw	255
  1105  05D9  34FF               	retlw	255
  1106  05DA  34FF               	retlw	255
  1107  05DB  34FF               	retlw	255
  1108  05DC  34FF               	retlw	255
  1109  05DD  34FF               	retlw	255
  1110  05DE  34FF               	retlw	255
  1111  05DF  34FF               	retlw	255
  1112  05E0  34FF               	retlw	255
  1113  05E1  34FF               	retlw	255
  1114  05E2  34FF               	retlw	255
  1115  05E3  34FF               	retlw	255
  1116  0017                     _LATBbits	set	23
  1117  0012                     _TRISBbits	set	18
  1118  0013                     _TRISCbits	set	19
  1119  0011                     _TRISAbits	set	17
  1120  000B                     _INTCONbits	set	11
  1121  000C                     _PORTAbits	set	12
  1122  011D                     _RC1STAbits	set	285
  1123  011E                     _TX1STAbits	set	286
  1124  011C                     _SP1BRGH	set	284
  1125  011B                     _SP1BRGL	set	283
  1126  011F                     _BAUD1CONbits	set	287
  1127  011A                     _TX1REG	set	282
  1128  060D                     _CWG1ISMbits	set	1549
  1129  060C                     _CWG1CLKCONbits	set	1548
  1130  0613                     _CWG1AS1bits	set	1555
  1131  0612                     _CWG1AS0bits	set	1554
  1132  060F                     _CWG1DBF	set	1551
  1133  060E                     _CWG1DBR	set	1550
  1134  0610                     _CWG1CON0bits	set	1552
  1135  0716                     _PIE0bits	set	1814
  1136  070F                     _PIR3bits	set	1807
  1137  0893                     _OSCFRQbits	set	2195
  1138  088D                     _OSCCON1bits	set	2189
  1139  0E2D                     _CLC3GLS3	set	3629
  1140  0E2C                     _CLC3GLS2	set	3628
  1141  0E2B                     _CLC3GLS1	set	3627
  1142  0E25                     _CLC3POLbits	set	3621
  1143  0E2A                     _CLC3GLS0	set	3626
  1144  0E29                     _CLC3SEL3bits	set	3625
  1145  0E28                     _CLC3SEL2bits	set	3624
  1146  0E27                     _CLC3SEL1bits	set	3623
  1147  0E26                     _CLC3SEL0bits	set	3622
  1148  0E24                     _CLC3CONbits	set	3620
  1149  0EBE                     _CLCIN3PPS	set	3774
  1150  0EBD                     _CLCIN2PPS	set	3773
  1151  0EB1                     _CWG1PPS	set	3761
  1152  0E90                     _INTPPS	set	3728
  1153  0F43                     _ANSELBbits	set	3907
  1154  0F1D                     _RB5PPS	set	3869
  1155  0F23                     _RC3PPS	set	3875
  1156  0F22                     _RC2PPS	set	3874
  1157  0F21                     _RC1PPS	set	3873
  1158  0F20                     _RC0PPS	set	3872
  1159  0F4E                     _ANSELCbits	set	3918
  1160  0F39                     _WPUAbits	set	3897
  1161  0F38                     _ANSELAbits	set	3896
  1162                           
  1163                           ; #config settings
  1164  0000                     
  1165                           	psect	cinit
  1166  07F1                     start_initialization:	
  1167  07F1                     __initialization:	
  1168                           
  1169                           ; Initialize objects allocated to BANK0
  1170  07F1  30D4               	movlw	low __pidataBANK0
  1171  07F2  0084               	movwf	4
  1172  07F3  3085               	movlw	(high __pidataBANK0)| (0+128)
  1173  07F4  0085               	movwf	5
  1174  07F5  3020               	movlw	low __pdataBANK0
  1175  07F6  0086               	movwf	6
  1176  07F7  3000               	movlw	high __pdataBANK0
  1177  07F8  0087               	movwf	7
  1178  07F9  3010               	movlw	16
  1179  07FA  3185  258F  3187   	fcall	init_ram
  1180  07FD                     end_of_initialization:	
  1181                           ;End of C runtime variable initialization code
  1182                           
  1183  07FD                     __end_of__initialization:	
  1184  07FD  0020               	movlb	0
  1185  07FE  3186  2E47         	ljmp	_main	;jump to C main() function
  1186                           
  1187                           	psect	dataBANK0
  1188  0020                     __pdataBANK0:	
  1189  0020                     _led_arr:	
  1190  0020                     	ds	16
  1191                           
  1192                           	psect	inittext
  1193  058F                     init_ram:	
  1194  058F  00FE               	movwf	btemp
  1195  0590                     initloop:	
  1196  0590  0012               	moviw fsr0++
  1197  0591  001E               	movwi fsr1++
  1198  0592  0BFE               	decfsz	btemp,f
  1199  0593  2D90               	goto	initloop
  1200  0594  3400               	retlw	0
  1201                           
  1202                           	psect	cstackCOMMON
  1203  0070                     __pcstackCOMMON:	
  1204  0070                     ?_init_oc:	
  1205  0070                     ??_init_oc:	
  1206                           ; 1 bytes @ 0x0
  1207                           
  1208  0070                     ?_init_port:	
  1209                           ; 1 bytes @ 0x0
  1210                           
  1211  0070                     ??_init_port:	
  1212                           ; 1 bytes @ 0x0
  1213                           
  1214  0070                     ?_set_interrupt:	
  1215                           ; 1 bytes @ 0x0
  1216                           
  1217  0070                     ??_set_interrupt:	
  1218                           ; 1 bytes @ 0x0
  1219                           
  1220  0070                     ?_set_pps:	
  1221                           ; 1 bytes @ 0x0
  1222                           
  1223  0070                     ??_set_pps:	
  1224                           ; 1 bytes @ 0x0
  1225                           
  1226  0070                     ?_set_eusart:	
  1227                           ; 1 bytes @ 0x0
  1228                           
  1229  0070                     ??_set_eusart:	
  1230                           ; 1 bytes @ 0x0
  1231                           
  1232  0070                     ?_set_cwg:	
  1233                           ; 1 bytes @ 0x0
  1234                           
  1235  0070                     ??_set_cwg:	
  1236                           ; 1 bytes @ 0x0
  1237                           
  1238  0070                     ?_set_clc:	
  1239                           ; 1 bytes @ 0x0
  1240                           
  1241  0070                     ??_set_clc:	
  1242                           ; 1 bytes @ 0x0
  1243                           
  1244  0070                     ?_lightup:	
  1245                           ; 1 bytes @ 0x0
  1246                           
  1247  0070                     ?_enable_out:	
  1248                           ; 1 bytes @ 0x0
  1249                           
  1250  0070                     ??_enable_out:	
  1251                           ; 1 bytes @ 0x0
  1252                           
  1253  0070                     ?_out_reset:	
  1254                           ; 1 bytes @ 0x0
  1255                           
  1256  0070                     ?_disable_out:	
  1257                           ; 1 bytes @ 0x0
  1258                           
  1259  0070                     ?_main:	
  1260                           ; 1 bytes @ 0x0
  1261                           
  1262  0070                     ?_delay:	
  1263                           ; 1 bytes @ 0x0
  1264                           
  1265  0070                     ?___wmul:	
  1266                           ; 1 bytes @ 0x0
  1267                           
  1268  0070                     delay@delay_time:	
  1269                           ; 2 bytes @ 0x0
  1270                           
  1271  0070                     ___wmul@multiplier:	
  1272                           ; 2 bytes @ 0x0
  1273                           
  1274                           
  1275                           ; 2 bytes @ 0x0
  1276  0070                     	ds	2
  1277  0072                     ??_delay:	
  1278  0072                     ___wmul@multiplicand:	
  1279                           ; 1 bytes @ 0x2
  1280                           
  1281                           
  1282                           ; 2 bytes @ 0x2
  1283  0072                     	ds	1
  1284  0073                     delay@i:	
  1285                           
  1286                           ; 2 bytes @ 0x3
  1287  0073                     	ds	1
  1288  0074                     ??___wmul:	
  1289  0074                     ___wmul@product:	
  1290                           ; 1 bytes @ 0x4
  1291                           
  1292                           
  1293                           ; 2 bytes @ 0x4
  1294  0074                     	ds	1
  1295  0075                     ??_out_reset:	
  1296  0075                     ??_disable_out:	
  1297                           ; 1 bytes @ 0x5
  1298                           
  1299                           
  1300                           ; 1 bytes @ 0x5
  1301  0075                     	ds	1
  1302  0076                     ?_turn_off_all:	
  1303  0076                     turn_off_all@num:	
  1304                           ; 1 bytes @ 0x6
  1305                           
  1306                           
  1307                           ; 2 bytes @ 0x6
  1308  0076                     	ds	2
  1309  0078                     ??_turn_off_all:	
  1310                           
  1311                           ; 1 bytes @ 0x8
  1312  0078                     	ds	1
  1313  0079                     turn_off_all@i:	
  1314                           
  1315                           ; 2 bytes @ 0x9
  1316  0079                     	ds	2
  1317  007B                     ??_lightup:	
  1318                           
  1319                           ; 1 bytes @ 0xB
  1320  007B                     	ds	3
  1321  007E                     ??_main:	
  1322                           
  1323                           	psect	cstackBANK0
  1324  0030                     __pcstackBANK0:	
  1325                           ; 1 bytes @ 0xE
  1326                           
  1327  0030                     lightup@R:	
  1328                           
  1329                           ; 2 bytes @ 0x0
  1330  0030                     	ds	2
  1331  0032                     lightup@G:	
  1332                           
  1333                           ; 2 bytes @ 0x2
  1334  0032                     	ds	2
  1335  0034                     lightup@B:	
  1336                           
  1337                           ; 2 bytes @ 0x4
  1338  0034                     	ds	2
  1339  0036                     lightup@i:	
  1340                           
  1341                           ; 2 bytes @ 0x6
  1342  0036                     	ds	2
  1343  0038                     lightup@led_addr:	
  1344                           
  1345                           ; 2 bytes @ 0x8
  1346  0038                     	ds	2
  1347  003A                     lightup@led_val:	
  1348                           
  1349                           ; 1 bytes @ 0xA
  1350  003A                     	ds	1
  1351  003B                     lightup@status:	
  1352                           
  1353                           ; 2 bytes @ 0xB
  1354  003B                     	ds	2
  1355                           
  1356                           	psect	maintext
  1357  0647                     __pmaintext:	
  1358 ;;
  1359 ;;Main: autosize = 0, tempsize = 0, incstack = 0, save=0
  1360 ;;
  1361 ;; *************** function _main *****************
  1362 ;; Defined at:
  1363 ;;		line 60 in file "main.c"
  1364 ;; Parameters:    Size  Location     Type
  1365 ;;		None
  1366 ;; Auto vars:     Size  Location     Type
  1367 ;;		None
  1368 ;; Return value:  Size  Location     Type
  1369 ;;                  1    wreg      void 
  1370 ;; Registers used:
  1371 ;;		wreg, fsr1l, fsr1h, status,2, status,0, pclath, cstack
  1372 ;; Tracked objects:
  1373 ;;		On entry : B1F/0
  1374 ;;		On exit  : 0/0
  1375 ;;		Unchanged: 0/0
  1376 ;; Data sizes:     COMMON   BANK0   BANK1   BANK2   BANK3   BANK4   BANK5   BANK6
  1377 ;;      Params:         0       0       0       0       0       0       0       0
  1378 ;;      Locals:         0       0       0       0       0       0       0       0
  1379 ;;      Temps:          0       0       0       0       0       0       0       0
  1380 ;;      Totals:         0       0       0       0       0       0       0       0
  1381 ;;Total ram usage:        0 bytes
  1382 ;; Hardware stack levels required when called:    3
  1383 ;; This function calls:
  1384 ;;		_init_oc
  1385 ;;		_init_port
  1386 ;;		_lightup
  1387 ;;		_set_clc
  1388 ;;		_set_cwg
  1389 ;;		_set_eusart
  1390 ;;		_set_interrupt
  1391 ;;		_set_pps
  1392 ;; This function is called by:
  1393 ;;		Startup code after reset
  1394 ;; This function uses a non-reentrant model
  1395 ;;
  1396                           
  1397                           
  1398                           ;psect for function _main
  1399  0647                     _main:	
  1400  0647                     l1146:	
  1401                           ;incstack = 0
  1402                           ; Regs used in _main: [wreg+fsr1l+fsr1h+status,2+status,0+pclath+cstack]
  1403                           
  1404                           
  1405                           ;main.c: 61:     init_oc();
  1406  0647  3185  2595  3186   	fcall	_init_oc
  1407  064A                     l1148:	
  1408                           
  1409                           ;main.c: 62:     init_port();
  1410  064A  3186  262D  3186   	fcall	_init_port
  1411  064D                     l1150:	
  1412                           
  1413                           ;main.c: 63:     set_interrupt();
  1414  064D  3185  259D  3186   	fcall	_set_interrupt
  1415                           
  1416                           ;main.c: 65:     set_pps();
  1417  0650  3186  2614  3186   	fcall	_set_pps
  1418                           
  1419                           ;main.c: 66:     set_eusart();
  1420  0653  3185  25B8  3186   	fcall	_set_eusart
  1421                           
  1422                           ;main.c: 67:     set_cwg();
  1423  0656  3186  2662  3186   	fcall	_set_cwg
  1424                           
  1425                           ;main.c: 68:     set_clc();
  1426  0659  3185  25FB  3186   	fcall	_set_clc
  1427  065C                     l1152:	
  1428                           
  1429                           ;main.c: 71:         lightup();
  1430  065C  3186  26C8  3186   	fcall	_lightup
  1431  065F  2E5C               	goto	l1152
  1432  0660  3180  2802         	ljmp	start
  1433  0662                     __end_of_main:	
  1434                           
  1435                           	psect	text1
  1436  0614                     __ptext1:	
  1437 ;; *************** function _set_pps *****************
  1438 ;; Defined at:
  1439 ;;		line 195 in file "main.c"
  1440 ;; Parameters:    Size  Location     Type
  1441 ;;		None
  1442 ;; Auto vars:     Size  Location     Type
  1443 ;;		None
  1444 ;; Return value:  Size  Location     Type
  1445 ;;                  1    wreg      void 
  1446 ;; Registers used:
  1447 ;;		wreg
  1448 ;; Tracked objects:
  1449 ;;		On entry : 0/0
  1450 ;;		On exit  : 0/0
  1451 ;;		Unchanged: 0/0
  1452 ;; Data sizes:     COMMON   BANK0   BANK1   BANK2   BANK3   BANK4   BANK5   BANK6
  1453 ;;      Params:         0       0       0       0       0       0       0       0
  1454 ;;      Locals:         0       0       0       0       0       0       0       0
  1455 ;;      Temps:          0       0       0       0       0       0       0       0
  1456 ;;      Totals:         0       0       0       0       0       0       0       0
  1457 ;;Total ram usage:        0 bytes
  1458 ;; Hardware stack levels used:    1
  1459 ;; This function calls:
  1460 ;;		Nothing
  1461 ;; This function is called by:
  1462 ;;		_main
  1463 ;; This function uses a non-reentrant model
  1464 ;;
  1465                           
  1466                           
  1467                           ;psect for function _set_pps
  1468  0614                     _set_pps:	
  1469  0614                     l894:	
  1470                           ;incstack = 0
  1471                           ; Regs used in _set_pps: [wreg]
  1472                           
  1473                           
  1474                           ;main.c: 197:     RC0PPS = 0x11;
  1475  0614  3011               	movlw	17
  1476  0615  003E               	movlb	30	; select bank30
  1477  0616  00A0               	movwf	32	;volatile
  1478                           
  1479                           ;main.c: 198:     RC1PPS = 0x10;
  1480  0617  3010               	movlw	16
  1481  0618  00A1               	movwf	33	;volatile
  1482                           
  1483                           ;main.c: 201:     CWG1PPS = 0x11;
  1484  0619  3011               	movlw	17
  1485  061A  003D               	movlb	29	; select bank29
  1486  061B  00B1               	movwf	49	;volatile
  1487                           
  1488                           ;main.c: 203:     RC2PPS = 0x05;
  1489  061C  3005               	movlw	5
  1490  061D  003E               	movlb	30	; select bank30
  1491  061E  00A2               	movwf	34	;volatile
  1492                           
  1493                           ;main.c: 204:     RC3PPS = 0x06;
  1494  061F  3006               	movlw	6
  1495  0620  00A3               	movwf	35	;volatile
  1496                           
  1497                           ;main.c: 209:     CLCIN2PPS = 0x12;
  1498  0621  3012               	movlw	18
  1499  0622  003D               	movlb	29	; select bank29
  1500  0623  00BD               	movwf	61	;volatile
  1501                           
  1502                           ;main.c: 210:     CLCIN3PPS = 0x13;
  1503  0624  3013               	movlw	19
  1504  0625  00BE               	movwf	62	;volatile
  1505                           
  1506                           ;main.c: 212:     RB5PPS = 0x03;
  1507  0626  3003               	movlw	3
  1508  0627  003E               	movlb	30	; select bank30
  1509  0628  009D               	movwf	29	;volatile
  1510  0629                     l896:	
  1511                           
  1512                           ;main.c: 213:     ANSELBbits.ANSB5 = 0;
  1513  0629  12C3               	bcf	67,5	;volatile
  1514  062A                     l898:	
  1515                           
  1516                           ;main.c: 214:     TRISBbits.TRISB5 = 0;
  1517  062A  0020               	movlb	0	; select bank0
  1518  062B  1292               	bcf	18,5	;volatile
  1519  062C                     l202:	
  1520  062C  0008               	return
  1521  062D                     __end_of_set_pps:	
  1522                           
  1523                           	psect	text2
  1524  059D                     __ptext2:	
  1525 ;; *************** function _set_interrupt *****************
  1526 ;; Defined at:
  1527 ;;		line 139 in file "main.c"
  1528 ;; Parameters:    Size  Location     Type
  1529 ;;		None
  1530 ;; Auto vars:     Size  Location     Type
  1531 ;;		None
  1532 ;; Return value:  Size  Location     Type
  1533 ;;                  1    wreg      void 
  1534 ;; Registers used:
  1535 ;;		status,2
  1536 ;; Tracked objects:
  1537 ;;		On entry : 0/0
  1538 ;;		On exit  : 0/0
  1539 ;;		Unchanged: 0/0
  1540 ;; Data sizes:     COMMON   BANK0   BANK1   BANK2   BANK3   BANK4   BANK5   BANK6
  1541 ;;      Params:         0       0       0       0       0       0       0       0
  1542 ;;      Locals:         0       0       0       0       0       0       0       0
  1543 ;;      Temps:          0       0       0       0       0       0       0       0
  1544 ;;      Totals:         0       0       0       0       0       0       0       0
  1545 ;;Total ram usage:        0 bytes
  1546 ;; Hardware stack levels used:    1
  1547 ;; This function calls:
  1548 ;;		Nothing
  1549 ;; This function is called by:
  1550 ;;		_main
  1551 ;; This function uses a non-reentrant model
  1552 ;;
  1553                           
  1554                           
  1555                           ;psect for function _set_interrupt
  1556  059D                     _set_interrupt:	
  1557  059D                     l890:	
  1558                           ;incstack = 0
  1559                           ; Regs used in _set_interrupt: [status,2]
  1560                           
  1561                           
  1562                           ;main.c: 140:     INTCONbits.GIE = 1;
  1563  059D  178B               	bsf	11,7	;volatile
  1564                           
  1565                           ;main.c: 141:     INTCONbits.PEIE = 1;
  1566  059E  170B               	bsf	11,6	;volatile
  1567                           
  1568                           ;main.c: 142:     PIE0bits.INTE = 1;
  1569  059F  002E               	movlb	14	; select bank14
  1570  05A0  1416               	bsf	22,0	;volatile
  1571                           
  1572                           ;main.c: 144:     INTCONbits.INTEDG = 1;
  1573  05A1  140B               	bsf	11,0	;volatile
  1574  05A2                     l892:	
  1575                           
  1576                           ;main.c: 145:     INTPPS = 0x00;
  1577  05A2  003D               	movlb	29	; select bank29
  1578  05A3  0190               	clrf	16	;volatile
  1579  05A4                     l193:	
  1580  05A4  0008               	return
  1581  05A5                     __end_of_set_interrupt:	
  1582                           
  1583                           	psect	text3
  1584  05B8                     __ptext3:	
  1585 ;; *************** function _set_eusart *****************
  1586 ;; Defined at:
  1587 ;;		line 178 in file "main.c"
  1588 ;; Parameters:    Size  Location     Type
  1589 ;;		None
  1590 ;; Auto vars:     Size  Location     Type
  1591 ;;		None
  1592 ;; Return value:  Size  Location     Type
  1593 ;;                  1    wreg      void 
  1594 ;; Registers used:
  1595 ;;		wreg, status,2
  1596 ;; Tracked objects:
  1597 ;;		On entry : 0/0
  1598 ;;		On exit  : 0/0
  1599 ;;		Unchanged: 0/0
  1600 ;; Data sizes:     COMMON   BANK0   BANK1   BANK2   BANK3   BANK4   BANK5   BANK6
  1601 ;;      Params:         0       0       0       0       0       0       0       0
  1602 ;;      Locals:         0       0       0       0       0       0       0       0
  1603 ;;      Temps:          0       0       0       0       0       0       0       0
  1604 ;;      Totals:         0       0       0       0       0       0       0       0
  1605 ;;Total ram usage:        0 bytes
  1606 ;; Hardware stack levels used:    1
  1607 ;; This function calls:
  1608 ;;		Nothing
  1609 ;; This function is called by:
  1610 ;;		_main
  1611 ;; This function uses a non-reentrant model
  1612 ;;
  1613                           
  1614                           
  1615                           ;psect for function _set_eusart
  1616  05B8                     _set_eusart:	
  1617  05B8                     l900:	
  1618                           ;incstack = 0
  1619                           ; Regs used in _set_eusart: [wreg+status,2]
  1620                           
  1621                           
  1622                           ;main.c: 180:     BAUD1CONbits.BRG16 = 1;
  1623  05B8  0022               	movlb	2	; select bank2
  1624  05B9  159F               	bsf	31,3	;volatile
  1625  05BA                     l902:	
  1626                           
  1627                           ;main.c: 181:     SP1BRGL = 0xce;
  1628  05BA  30CE               	movlw	206
  1629  05BB  009B               	movwf	27	;volatile
  1630  05BC                     l904:	
  1631                           
  1632                           ;main.c: 182:     SP1BRGH = 0x00;
  1633  05BC  019C               	clrf	28	;volatile
  1634  05BD                     l906:	
  1635                           
  1636                           ;main.c: 185:     TX1STAbits.CSRC = 1;
  1637  05BD  179E               	bsf	30,7	;volatile
  1638  05BE                     l908:	
  1639                           
  1640                           ;main.c: 186:     TX1STAbits.SYNC = 1;
  1641  05BE  161E               	bsf	30,4	;volatile
  1642  05BF                     l910:	
  1643                           
  1644                           ;main.c: 188:     TX1STAbits.TX9 = 0;
  1645  05BF  131E               	bcf	30,6	;volatile
  1646  05C0                     l912:	
  1647                           
  1648                           ;main.c: 189:     RC1STAbits.RX9 = 0;
  1649  05C0  131D               	bcf	29,6	;volatile
  1650  05C1                     l914:	
  1651                           
  1652                           ;main.c: 191:     RC1STAbits.SPEN = 1;
  1653  05C1  179D               	bsf	29,7	;volatile
  1654  05C2                     l916:	
  1655                           
  1656                           ;main.c: 192:     RC1STAbits.CREN = 0;
  1657  05C2  121D               	bcf	29,4	;volatile
  1658  05C3                     l199:	
  1659  05C3  0008               	return
  1660  05C4                     __end_of_set_eusart:	
  1661                           
  1662                           	psect	text4
  1663  0662                     __ptext4:	
  1664 ;; *************** function _set_cwg *****************
  1665 ;; Defined at:
  1666 ;;		line 217 in file "main.c"
  1667 ;; Parameters:    Size  Location     Type
  1668 ;;		None
  1669 ;; Auto vars:     Size  Location     Type
  1670 ;;		None
  1671 ;; Return value:  Size  Location     Type
  1672 ;;                  1    wreg      void 
  1673 ;; Registers used:
  1674 ;;		wreg, status,2, status,0
  1675 ;; Tracked objects:
  1676 ;;		On entry : 0/0
  1677 ;;		On exit  : 0/0
  1678 ;;		Unchanged: 0/0
  1679 ;; Data sizes:     COMMON   BANK0   BANK1   BANK2   BANK3   BANK4   BANK5   BANK6
  1680 ;;      Params:         0       0       0       0       0       0       0       0
  1681 ;;      Locals:         0       0       0       0       0       0       0       0
  1682 ;;      Temps:          0       0       0       0       0       0       0       0
  1683 ;;      Totals:         0       0       0       0       0       0       0       0
  1684 ;;Total ram usage:        0 bytes
  1685 ;; Hardware stack levels used:    1
  1686 ;; This function calls:
  1687 ;;		Nothing
  1688 ;; This function is called by:
  1689 ;;		_main
  1690 ;; This function uses a non-reentrant model
  1691 ;;
  1692                           
  1693                           
  1694                           ;psect for function _set_cwg
  1695  0662                     _set_cwg:	
  1696  0662                     l918:	
  1697                           ;incstack = 0
  1698                           ; Regs used in _set_cwg: [wreg+status,2+status,0]
  1699                           
  1700                           
  1701                           ;main.c: 219:     TRISCbits.TRISC2 = 1;
  1702  0662  0020               	movlb	0	; select bank0
  1703  0663  1513               	bsf	19,2	;volatile
  1704                           
  1705                           ;main.c: 220:     TRISCbits.TRISC3 = 1;
  1706  0664  1593               	bsf	19,3	;volatile
  1707                           
  1708                           ;main.c: 222:     CWG1CON0bits.EN = 0;
  1709  0665  002C               	movlb	12	; select bank12
  1710  0666  1390               	bcf	16,7	;volatile
  1711  0667                     l920:	
  1712                           
  1713                           ;main.c: 223:     CWG1CON0bits.CWG1MODE = 0b100;
  1714  0667  0810               	movf	16,w	;volatile
  1715  0668  39F8               	andlw	-8
  1716  0669  3804               	iorlw	4
  1717  066A  0090               	movwf	16	;volatile
  1718  066B                     l922:	
  1719                           
  1720                           ;main.c: 225:     CWG1DBR = 0x0C;
  1721  066B  300C               	movlw	12
  1722  066C  008E               	movwf	14	;volatile
  1723  066D                     l924:	
  1724                           
  1725                           ;main.c: 226:     CWG1DBF = 0x07;
  1726  066D  3007               	movlw	7
  1727  066E  008F               	movwf	15	;volatile
  1728  066F                     l926:	
  1729                           
  1730                           ;main.c: 229:     CWG1AS0bits.REN = 0;
  1731  066F  1312               	bcf	18,6	;volatile
  1732                           
  1733                           ;main.c: 230:     CWG1AS0bits.LSAC = 0b10;
  1734  0670  0812               	movf	18,w	;volatile
  1735  0671  39F3               	andlw	-13
  1736  0672  3808               	iorlw	8
  1737  0673  0092               	movwf	18	;volatile
  1738                           
  1739                           ;main.c: 231:     CWG1AS0bits.LSBD = 0b10;
  1740  0674  0812               	movf	18,w	;volatile
  1741  0675  39CF               	andlw	-49
  1742  0676  3820               	iorlw	32
  1743  0677  0092               	movwf	18	;volatile
  1744  0678                     l928:	
  1745                           
  1746                           ;main.c: 232:     CWG1AS1bits.AS0E = 0;
  1747  0678  1013               	bcf	19,0	;volatile
  1748  0679                     l930:	
  1749                           
  1750                           ;main.c: 235:     CWG1CLKCONbits.CS = 0;
  1751  0679  100C               	bcf	12,0	;volatile
  1752                           
  1753                           ;main.c: 236:     CWG1ISMbits.IS = 0b0000;
  1754  067A  30F0               	movlw	-16
  1755  067B  058D               	andwf	13,f	;volatile
  1756  067C                     l932:	
  1757                           
  1758                           ;main.c: 239:     TRISCbits.TRISC2 = 0;
  1759  067C  0020               	movlb	0	; select bank0
  1760  067D  1113               	bcf	19,2	;volatile
  1761  067E                     l934:	
  1762                           
  1763                           ;main.c: 240:     TRISCbits.TRISC3 = 0;
  1764  067E  1193               	bcf	19,3	;volatile
  1765  067F                     l205:	
  1766  067F  0008               	return
  1767  0680                     __end_of_set_cwg:	
  1768                           
  1769                           	psect	text5
  1770  05FB                     __ptext5:	
  1771 ;; *************** function _set_clc *****************
  1772 ;; Defined at:
  1773 ;;		line 243 in file "main.c"
  1774 ;; Parameters:    Size  Location     Type
  1775 ;;		None
  1776 ;; Auto vars:     Size  Location     Type
  1777 ;;		None
  1778 ;; Return value:  Size  Location     Type
  1779 ;;                  1    wreg      void 
  1780 ;; Registers used:
  1781 ;;		wreg, status,2, status,0
  1782 ;; Tracked objects:
  1783 ;;		On entry : 0/0
  1784 ;;		On exit  : 0/0
  1785 ;;		Unchanged: 0/0
  1786 ;; Data sizes:     COMMON   BANK0   BANK1   BANK2   BANK3   BANK4   BANK5   BANK6
  1787 ;;      Params:         0       0       0       0       0       0       0       0
  1788 ;;      Locals:         0       0       0       0       0       0       0       0
  1789 ;;      Temps:          0       0       0       0       0       0       0       0
  1790 ;;      Totals:         0       0       0       0       0       0       0       0
  1791 ;;Total ram usage:        0 bytes
  1792 ;; Hardware stack levels used:    1
  1793 ;; This function calls:
  1794 ;;		Nothing
  1795 ;; This function is called by:
  1796 ;;		_main
  1797 ;; This function uses a non-reentrant model
  1798 ;;
  1799                           
  1800                           
  1801                           ;psect for function _set_clc
  1802  05FB                     _set_clc:	
  1803  05FB                     l936:	
  1804                           ;incstack = 0
  1805                           ; Regs used in _set_clc: [wreg+status,2+status,0]
  1806                           
  1807                           
  1808                           ;main.c: 244:     CLC3CONbits.LC3EN = 0;
  1809  05FB  003C               	movlb	28	; select bank28
  1810  05FC  13A4               	bcf	36,7	;volatile
  1811  05FD                     l938:	
  1812                           
  1813                           ;main.c: 247:     CLC3SEL0bits.LC3D1S = 0b000011;
  1814  05FD  3003               	movlw	3
  1815  05FE  00A6               	movwf	38	;volatile
  1816                           
  1817                           ;main.c: 248:     CLC3SEL1bits.LC3D2S = 0b100100;
  1818  05FF  3024               	movlw	36
  1819  0600  00A7               	movwf	39	;volatile
  1820                           
  1821                           ;main.c: 249:     CLC3SEL2bits.LC3D3S = 0b000010;
  1822  0601  3002               	movlw	2
  1823  0602  00A8               	movwf	40	;volatile
  1824                           
  1825                           ;main.c: 250:     CLC3SEL3bits.LC3D4S = 0b100101;
  1826  0603  3025               	movlw	37
  1827  0604  00A9               	movwf	41	;volatile
  1828                           
  1829                           ;main.c: 252:     CLC3GLS0 = 0x02;
  1830  0605  3002               	movlw	2
  1831  0606  00AA               	movwf	42	;volatile
  1832  0607                     l940:	
  1833                           
  1834                           ;main.c: 253:     CLC3POLbits.LC3G1POL = 1;
  1835  0607  1425               	bsf	37,0	;volatile
  1836                           
  1837                           ;main.c: 254:     CLC3GLS1 = 0x08;
  1838  0608  3008               	movlw	8
  1839  0609  00AB               	movwf	43	;volatile
  1840  060A                     l942:	
  1841                           
  1842                           ;main.c: 255:     CLC3POLbits.LC3G2POL = 0;
  1843  060A  10A5               	bcf	37,1	;volatile
  1844                           
  1845                           ;main.c: 256:     CLC3GLS2 = 0x22;
  1846  060B  3022               	movlw	34
  1847  060C  00AC               	movwf	44	;volatile
  1848  060D                     l944:	
  1849                           
  1850                           ;main.c: 257:     CLC3POLbits.LC3G3POL = 1;
  1851  060D  1525               	bsf	37,2	;volatile
  1852                           
  1853                           ;main.c: 258:     CLC3GLS3 = 0x80;
  1854  060E  3080               	movlw	128
  1855  060F  00AD               	movwf	45	;volatile
  1856  0610                     l946:	
  1857                           
  1858                           ;main.c: 259:     CLC3POLbits.LC3G4POL = 0;
  1859  0610  11A5               	bcf	37,3	;volatile
  1860  0611                     l948:	
  1861                           
  1862                           ;main.c: 261:     CLC3CONbits.LC3MODE = 0b000;
  1863  0611  30F8               	movlw	-8
  1864  0612  05A4               	andwf	36,f	;volatile
  1865  0613                     l208:	
  1866  0613  0008               	return
  1867  0614                     __end_of_set_clc:	
  1868                           
  1869                           	psect	text6
  1870  06C8                     __ptext6:	
  1871 ;; *************** function _lightup *****************
  1872 ;; Defined at:
  1873 ;;		line 81 in file "main.c"
  1874 ;; Parameters:    Size  Location     Type
  1875 ;;		None
  1876 ;; Auto vars:     Size  Location     Type
  1877 ;;  B               2    4[BANK0 ] int 
  1878 ;;  G               2    2[BANK0 ] int 
  1879 ;;  R               2    0[BANK0 ] int 
  1880 ;;  status          2   11[BANK0 ] int 
  1881 ;;  led_addr        2    8[BANK0 ] int 
  1882 ;;  i               2    6[BANK0 ] int 
  1883 ;;  led_val         1   10[BANK0 ] unsigned char 
  1884 ;; Return value:  Size  Location     Type
  1885 ;;                  1    wreg      void 
  1886 ;; Registers used:
  1887 ;;		wreg, fsr1l, fsr1h, status,2, status,0, pclath, cstack
  1888 ;; Tracked objects:
  1889 ;;		On entry : 0/0
  1890 ;;		On exit  : 0/0
  1891 ;;		Unchanged: 0/0
  1892 ;; Data sizes:     COMMON   BANK0   BANK1   BANK2   BANK3   BANK4   BANK5   BANK6
  1893 ;;      Params:         0       0       0       0       0       0       0       0
  1894 ;;      Locals:         0      13       0       0       0       0       0       0
  1895 ;;      Temps:          3       0       0       0       0       0       0       0
  1896 ;;      Totals:         3      13       0       0       0       0       0       0
  1897 ;;Total ram usage:       16 bytes
  1898 ;; Hardware stack levels used:    1
  1899 ;; Hardware stack levels required when called:    2
  1900 ;; This function calls:
  1901 ;;		_disable_out
  1902 ;;		_enable_out
  1903 ;;		_out_reset
  1904 ;;		_turn_off_all
  1905 ;; This function is called by:
  1906 ;;		_main
  1907 ;; This function uses a non-reentrant model
  1908 ;;
  1909                           
  1910                           
  1911                           ;psect for function _lightup
  1912  06C8                     _lightup:	
  1913  06C8                     l1074:	
  1914                           ;incstack = 0
  1915                           ; Regs used in _lightup: [wreg+fsr1l+fsr1h+status,2+status,0+pclath+cstack]
  1916                           
  1917                           
  1918                           ;main.c: 82:     int led_addr = -1;
  1919  06C8  30FF               	movlw	255
  1920  06C9  0020               	movlb	0	; select bank0
  1921  06CA  00B8               	movwf	lightup@led_addr
  1922  06CB  30FF               	movlw	255
  1923  06CC  00B9               	movwf	lightup@led_addr+1
  1924  06CD                     l1076:	
  1925                           
  1926                           ;main.c: 83:     unsigned char led_val;;main.c: 84:     int i = 0;
  1927  06CD  01B6               	clrf	lightup@i
  1928  06CE  01B7               	clrf	lightup@i+1
  1929  06CF                     l1078:	
  1930                           
  1931                           ;main.c: 85:     int status = 0;
  1932  06CF  01BB               	clrf	lightup@status
  1933  06D0  01BC               	clrf	lightup@status+1
  1934  06D1                     l1080:	
  1935                           
  1936                           ;main.c: 87:     enable_out();
  1937  06D1  3185  25A5  3186   	fcall	_enable_out
  1938                           
  1939                           ;main.c: 88:     out_reset();
  1940  06D4  3185  25AE  3186   	fcall	_out_reset
  1941  06D7                     l1082:	
  1942                           
  1943                           ;main.c: 91:         if (++led_addr == 16) {
  1944  06D7  3001               	movlw	1
  1945  06D8  0020               	movlb	0	; select bank0
  1946  06D9  07B8               	addwf	lightup@led_addr,f
  1947  06DA  3000               	movlw	0
  1948  06DB  3DB9               	addwfc	lightup@led_addr+1,f
  1949  06DC  3010               	movlw	16
  1950  06DD  0638               	xorwf	lightup@led_addr,w
  1951  06DE  0439               	iorwf	lightup@led_addr+1,w
  1952  06DF  1D03               	btfss	3,2
  1953  06E0  2EE2               	goto	u371
  1954  06E1  2EE3               	goto	u370
  1955  06E2                     u371:	
  1956  06E2  2EE5               	goto	l1086
  1957  06E3                     u370:	
  1958  06E3                     l1084:	
  1959                           
  1960                           ;main.c: 92:             led_addr = 0;
  1961  06E3  01B8               	clrf	lightup@led_addr
  1962  06E4  01B9               	clrf	lightup@led_addr+1
  1963  06E5                     l1086:	
  1964                           
  1965                           ;main.c: 94:         led_val = led_arr[led_addr];
  1966  06E5  0838               	movf	lightup@led_addr,w
  1967  06E6  3E20               	addlw	(low (_led_arr| 0))& (0+255)
  1968  06E7  0086               	movwf	6
  1969  06E8  0187               	clrf	7
  1970  06E9  0801               	movf	1,w
  1971  06EA  00FB               	movwf	??_lightup
  1972  06EB  087B               	movf	??_lightup,w
  1973  06EC  00BA               	movwf	lightup@led_val
  1974  06ED                     l1088:	
  1975                           
  1976                           ;main.c: 95:         int R = ((led_val >> 2) & 0x03) << 4;
  1977  06ED  083A               	movf	lightup@led_val,w
  1978  06EE  00FB               	movwf	??_lightup
  1979  06EF  3002               	movlw	2
  1980  06F0                     u385:	
  1981  06F0  36FB               	lsrf	??_lightup,f
  1982  06F1  0B89               	decfsz	9,f
  1983  06F2  2EF0               	goto	u385
  1984  06F3  087B               	movf	??_lightup,w
  1985  06F4  3903               	andlw	3
  1986  06F5  00FC               	movwf	??_lightup+1
  1987  06F6  01FD               	clrf	??_lightup+2
  1988  06F7  0EFC               	swapf	??_lightup+1,f
  1989  06F8  0EFD               	swapf	??_lightup+2,f
  1990  06F9  30F0               	movlw	240
  1991  06FA  05FD               	andwf	??_lightup+2,f
  1992  06FB  087C               	movf	??_lightup+1,w
  1993  06FC  390F               	andlw	15
  1994  06FD  04FD               	iorwf	??_lightup+2,f
  1995  06FE  30F0               	movlw	240
  1996  06FF  05FC               	andwf	??_lightup+1,f
  1997  0700  087C               	movf	??_lightup+1,w
  1998  0701  00B0               	movwf	lightup@R
  1999  0702  087D               	movf	??_lightup+2,w
  2000  0703  00B1               	movwf	lightup@R+1
  2001  0704                     l1090:	
  2002                           
  2003                           ;main.c: 96:         int G = ((led_val >> 4) & 0x03) << 4;
  2004  0704  083A               	movf	lightup@led_val,w
  2005  0705  00FB               	movwf	??_lightup
  2006  0706  3004               	movlw	4
  2007  0707                     u395:	
  2008  0707  36FB               	lsrf	??_lightup,f
  2009  0708  0B89               	decfsz	9,f
  2010  0709  2F07               	goto	u395
  2011  070A  087B               	movf	??_lightup,w
  2012  070B  3903               	andlw	3
  2013  070C  00FC               	movwf	??_lightup+1
  2014  070D  01FD               	clrf	??_lightup+2
  2015  070E  0EFC               	swapf	??_lightup+1,f
  2016  070F  0EFD               	swapf	??_lightup+2,f
  2017  0710  30F0               	movlw	240
  2018  0711  05FD               	andwf	??_lightup+2,f
  2019  0712  087C               	movf	??_lightup+1,w
  2020  0713  390F               	andlw	15
  2021  0714  04FD               	iorwf	??_lightup+2,f
  2022  0715  30F0               	movlw	240
  2023  0716  05FC               	andwf	??_lightup+1,f
  2024  0717  087C               	movf	??_lightup+1,w
  2025  0718  00B2               	movwf	lightup@G
  2026  0719  087D               	movf	??_lightup+2,w
  2027  071A  00B3               	movwf	lightup@G+1
  2028  071B                     l1092:	
  2029                           
  2030                           ;main.c: 97:         int B = ((led_val >> 6) & 0x03) << 4;
  2031  071B  083A               	movf	lightup@led_val,w
  2032  071C  00FB               	movwf	??_lightup
  2033  071D  3006               	movlw	6
  2034  071E                     u405:	
  2035  071E  36FB               	lsrf	??_lightup,f
  2036  071F  0B89               	decfsz	9,f
  2037  0720  2F1E               	goto	u405
  2038  0721  087B               	movf	??_lightup,w
  2039  0722  3903               	andlw	3
  2040  0723  00FC               	movwf	??_lightup+1
  2041  0724  01FD               	clrf	??_lightup+2
  2042  0725  0EFC               	swapf	??_lightup+1,f
  2043  0726  0EFD               	swapf	??_lightup+2,f
  2044  0727  30F0               	movlw	240
  2045  0728  05FD               	andwf	??_lightup+2,f
  2046  0729  087C               	movf	??_lightup+1,w
  2047  072A  390F               	andlw	15
  2048  072B  04FD               	iorwf	??_lightup+2,f
  2049  072C  30F0               	movlw	240
  2050  072D  05FC               	andwf	??_lightup+1,f
  2051  072E  087C               	movf	??_lightup+1,w
  2052  072F  00B4               	movwf	lightup@B
  2053  0730  087D               	movf	??_lightup+2,w
  2054  0731  00B5               	movwf	lightup@B+1
  2055  0732                     l1094:	
  2056                           
  2057                           ;main.c: 100:         if(++status >= 30)
  2058  0732  3001               	movlw	1
  2059  0733  07BB               	addwf	lightup@status,f
  2060  0734  3000               	movlw	0
  2061  0735  3DBC               	addwfc	lightup@status+1,f
  2062  0736  083C               	movf	lightup@status+1,w
  2063  0737  3A80               	xorlw	128
  2064  0738  00FB               	movwf	??_lightup
  2065  0739  3080               	movlw	128
  2066  073A  027B               	subwf	??_lightup,w
  2067  073B  1D03               	skipz
  2068  073C  2F3F               	goto	u415
  2069  073D  301E               	movlw	30
  2070  073E  023B               	subwf	lightup@status,w
  2071  073F                     u415:	
  2072  073F  1C03               	skipc
  2073  0740  2F42               	goto	u411
  2074  0741  2F43               	goto	u410
  2075  0742                     u411:	
  2076  0742  2F46               	goto	l1098
  2077  0743                     u410:	
  2078  0743                     l1096:	
  2079                           
  2080                           ;main.c: 101:             status = 0;
  2081  0743  0020               	movlb	0	; select bank0
  2082  0744  01BB               	clrf	lightup@status
  2083  0745  01BC               	clrf	lightup@status+1
  2084  0746                     l1098:	
  2085                           
  2086                           ;main.c: 102:         if(status <= 10){
  2087  0746  0020               	movlb	0	; select bank0
  2088  0747  083C               	movf	lightup@status+1,w
  2089  0748  3A80               	xorlw	128
  2090  0749  00FB               	movwf	??_lightup
  2091  074A  3080               	movlw	128
  2092  074B  027B               	subwf	??_lightup,w
  2093  074C  1D03               	skipz
  2094  074D  2F50               	goto	u425
  2095  074E  300B               	movlw	11
  2096  074F  023B               	subwf	lightup@status,w
  2097  0750                     u425:	
  2098  0750  1803               	skipnc
  2099  0751  2F53               	goto	u421
  2100  0752  2F54               	goto	u420
  2101  0753                     u421:	
  2102  0753  2F6C               	goto	l1106
  2103  0754                     u420:	
  2104  0754                     l134:	
  2105  0754  002E               	movlb	14	; select bank14
  2106  0755  1E0F               	btfss	15,4	;volatile
  2107  0756  2F58               	goto	u431
  2108  0757  2F59               	goto	u430
  2109  0758                     u431:	
  2110  0758  2F54               	goto	l134
  2111  0759                     u430:	
  2112  0759                     l1100:	
  2113  0759  0022               	movlb	2	; select bank2
  2114  075A  019A               	clrf	26	;volatile
  2115  075B                     l137:	
  2116  075B  002E               	movlb	14	; select bank14
  2117  075C  1E0F               	btfss	15,4	;volatile
  2118  075D  2F5F               	goto	u441
  2119  075E  2F60               	goto	u440
  2120  075F                     u441:	
  2121  075F  2F5B               	goto	l137
  2122  0760                     u440:	
  2123  0760                     l1102:	
  2124  0760  0020               	movlb	0	; select bank0
  2125  0761  0830               	movf	lightup@R,w
  2126  0762  0022               	movlb	2	; select bank2
  2127  0763  009A               	movwf	26	;volatile
  2128  0764                     l140:	
  2129  0764  002E               	movlb	14	; select bank14
  2130  0765  1E0F               	btfss	15,4	;volatile
  2131  0766  2F68               	goto	u451
  2132  0767  2F69               	goto	u450
  2133  0768                     u451:	
  2134  0768  2F64               	goto	l140
  2135  0769                     u450:	
  2136  0769                     l1104:	
  2137  0769  0022               	movlb	2	; select bank2
  2138  076A  019A               	clrf	26	;volatile
  2139  076B  2FCA               	goto	l1128
  2140  076C                     l1106:	
  2141  076C  0020               	movlb	0	; select bank0
  2142  076D  083C               	movf	lightup@status+1,w
  2143  076E  3A80               	xorlw	128
  2144  076F  00FB               	movwf	??_lightup
  2145  0770  3080               	movlw	128
  2146  0771  027B               	subwf	??_lightup,w
  2147  0772  1D03               	skipz
  2148  0773  2F76               	goto	u465
  2149  0774  3015               	movlw	21
  2150  0775  023B               	subwf	lightup@status,w
  2151  0776                     u465:	
  2152  0776  1803               	skipnc
  2153  0777  2F79               	goto	u461
  2154  0778  2F7A               	goto	u460
  2155  0779                     u461:	
  2156  0779  2F90               	goto	l1114
  2157  077A                     u460:	
  2158  077A                     l147:	
  2159  077A  002E               	movlb	14	; select bank14
  2160  077B  1E0F               	btfss	15,4	;volatile
  2161  077C  2F7E               	goto	u471
  2162  077D  2F7F               	goto	u470
  2163  077E                     u471:	
  2164  077E  2F7A               	goto	l147
  2165  077F                     u470:	
  2166  077F                     l1108:	
  2167  077F  0020               	movlb	0	; select bank0
  2168  0780  0832               	movf	lightup@G,w
  2169  0781  0022               	movlb	2	; select bank2
  2170  0782  009A               	movwf	26	;volatile
  2171  0783                     l150:	
  2172  0783  002E               	movlb	14	; select bank14
  2173  0784  1E0F               	btfss	15,4	;volatile
  2174  0785  2F87               	goto	u481
  2175  0786  2F88               	goto	u480
  2176  0787                     u481:	
  2177  0787  2F83               	goto	l150
  2178  0788                     u480:	
  2179  0788                     l1110:	
  2180  0788  0022               	movlb	2	; select bank2
  2181  0789  019A               	clrf	26	;volatile
  2182  078A                     l153:	
  2183  078A  002E               	movlb	14	; select bank14
  2184  078B  1E0F               	btfss	15,4	;volatile
  2185  078C  2F8E               	goto	u491
  2186  078D  2F8F               	goto	u490
  2187  078E                     u491:	
  2188  078E  2F8A               	goto	l153
  2189  078F                     u490:	
  2190  078F  2F69               	goto	l1104
  2191  0790                     l1114:	
  2192  0790  0020               	movlb	0	; select bank0
  2193  0791  083C               	movf	lightup@status+1,w
  2194  0792  3A80               	xorlw	128
  2195  0793  00FB               	movwf	??_lightup
  2196  0794  3080               	movlw	128
  2197  0795  027B               	subwf	??_lightup,w
  2198  0796  1D03               	skipz
  2199  0797  2F9A               	goto	u505
  2200  0798  301F               	movlw	31
  2201  0799  023B               	subwf	lightup@status,w
  2202  079A                     u505:	
  2203  079A  1803               	skipnc
  2204  079B  2F9D               	goto	u501
  2205  079C  2F9E               	goto	u500
  2206  079D                     u501:	
  2207  079D  2FB6               	goto	l172
  2208  079E                     u500:	
  2209  079E                     l160:	
  2210  079E  002E               	movlb	14	; select bank14
  2211  079F  1E0F               	btfss	15,4	;volatile
  2212  07A0  2FA2               	goto	u511
  2213  07A1  2FA3               	goto	u510
  2214  07A2                     u511:	
  2215  07A2  2F9E               	goto	l160
  2216  07A3                     u510:	
  2217  07A3                     l1116:	
  2218  07A3  0022               	movlb	2	; select bank2
  2219  07A4  019A               	clrf	26	;volatile
  2220  07A5                     l163:	
  2221  07A5  002E               	movlb	14	; select bank14
  2222  07A6  1E0F               	btfss	15,4	;volatile
  2223  07A7  2FA9               	goto	u521
  2224  07A8  2FAA               	goto	u520
  2225  07A9                     u521:	
  2226  07A9  2FA5               	goto	l163
  2227  07AA                     u520:	
  2228  07AA                     l1118:	
  2229  07AA  0022               	movlb	2	; select bank2
  2230  07AB  019A               	clrf	26	;volatile
  2231  07AC                     l166:	
  2232  07AC  002E               	movlb	14	; select bank14
  2233  07AD  1E0F               	btfss	15,4	;volatile
  2234  07AE  2FB0               	goto	u531
  2235  07AF  2FB1               	goto	u530
  2236  07B0                     u531:	
  2237  07B0  2FAC               	goto	l166
  2238  07B1                     u530:	
  2239  07B1                     l1120:	
  2240  07B1  0020               	movlb	0	; select bank0
  2241  07B2  0834               	movf	lightup@B,w
  2242  07B3  0022               	movlb	2	; select bank2
  2243  07B4  009A               	movwf	26	;volatile
  2244  07B5  2FCA               	goto	l1128
  2245  07B6                     l172:	
  2246  07B6  002E               	movlb	14	; select bank14
  2247  07B7  1E0F               	btfss	15,4	;volatile
  2248  07B8  2FBA               	goto	u541
  2249  07B9  2FBB               	goto	u540
  2250  07BA                     u541:	
  2251  07BA  2FB6               	goto	l172
  2252  07BB                     u540:	
  2253  07BB                     l1122:	
  2254  07BB  0022               	movlb	2	; select bank2
  2255  07BC  019A               	clrf	26	;volatile
  2256  07BD                     l175:	
  2257  07BD  002E               	movlb	14	; select bank14
  2258  07BE  1E0F               	btfss	15,4	;volatile
  2259  07BF  2FC1               	goto	u551
  2260  07C0  2FC2               	goto	u550
  2261  07C1                     u551:	
  2262  07C1  2FBD               	goto	l175
  2263  07C2                     u550:	
  2264  07C2                     l1124:	
  2265  07C2  0022               	movlb	2	; select bank2
  2266  07C3  019A               	clrf	26	;volatile
  2267  07C4                     l178:	
  2268  07C4  002E               	movlb	14	; select bank14
  2269  07C5  1E0F               	btfss	15,4	;volatile
  2270  07C6  2FC8               	goto	u561
  2271  07C7  2FC9               	goto	u560
  2272  07C8                     u561:	
  2273  07C8  2FC4               	goto	l178
  2274  07C9                     u560:	
  2275  07C9  2F69               	goto	l1104
  2276  07CA                     l1128:	
  2277                           
  2278                           ;main.c: 115:         if (++i == 16) {
  2279  07CA  3001               	movlw	1
  2280  07CB  0020               	movlb	0	; select bank0
  2281  07CC  07B6               	addwf	lightup@i,f
  2282  07CD  3000               	movlw	0
  2283  07CE  3DB7               	addwfc	lightup@i+1,f
  2284  07CF  3010               	movlw	16
  2285  07D0  0636               	xorwf	lightup@i,w
  2286  07D1  0437               	iorwf	lightup@i+1,w
  2287  07D2  1D03               	btfss	3,2
  2288  07D3  2FD5               	goto	u571
  2289  07D4  2FD6               	goto	u570
  2290  07D5                     u571:	
  2291  07D5  2ED7               	goto	l1082
  2292  07D6                     u570:	
  2293  07D6                     l1130:	
  2294                           
  2295                           ;main.c: 116:             i = 0;
  2296  07D6  01B6               	clrf	lightup@i
  2297  07D7  01B7               	clrf	lightup@i+1
  2298  07D8                     l1132:	
  2299                           
  2300                           ;main.c: 117:             disable_out();
  2301  07D8  3185  25C4  3186   	fcall	_disable_out
  2302  07DB                     l1134:	
  2303                           
  2304                           ;main.c: 118:             enable_out();
  2305  07DB  3185  25A5  3186   	fcall	_enable_out
  2306  07DE                     l1136:	
  2307                           
  2308                           ;main.c: 119:             out_reset();
  2309  07DE  3185  25AE  3186   	fcall	_out_reset
  2310  07E1                     l1138:	
  2311                           
  2312                           ;main.c: 121:             if (PORTAbits.RA0 == 1) {
  2313  07E1  0020               	movlb	0	; select bank0
  2314  07E2  1C0C               	btfss	12,0	;volatile
  2315  07E3  2FE5               	goto	u581
  2316  07E4  2FE6               	goto	u580
  2317  07E5                     u581:	
  2318  07E5  2ED7               	goto	l1082
  2319  07E6                     u580:	
  2320  07E6                     l1142:	
  2321                           
  2322                           ;main.c: 128:     turn_off_all(16);
  2323  07E6  3010               	movlw	16
  2324  07E7  00F6               	movwf	turn_off_all@num
  2325  07E8  3000               	movlw	0
  2326  07E9  00F7               	movwf	turn_off_all@num+1
  2327  07EA  3186  269F  3186   	fcall	_turn_off_all
  2328                           
  2329                           ;main.c: 129:     disable_out();
  2330  07ED  3185  25C4  3186   	fcall	_disable_out
  2331  07F0                     l187:	
  2332  07F0  0008               	return
  2333  07F1                     __end_of_lightup:	
  2334                           
  2335                           	psect	text7
  2336  069F                     __ptext7:	
  2337 ;; *************** function _turn_off_all *****************
  2338 ;; Defined at:
  2339 ;;		line 303 in file "main.c"
  2340 ;; Parameters:    Size  Location     Type
  2341 ;;  num             2    6[COMMON] int 
  2342 ;; Auto vars:     Size  Location     Type
  2343 ;;  i               2    9[COMMON] int 
  2344 ;; Return value:  Size  Location     Type
  2345 ;;                  1    wreg      void 
  2346 ;; Registers used:
  2347 ;;		wreg, status,2, status,0, pclath, cstack
  2348 ;; Tracked objects:
  2349 ;;		On entry : 0/0
  2350 ;;		On exit  : 0/0
  2351 ;;		Unchanged: 0/0
  2352 ;; Data sizes:     COMMON   BANK0   BANK1   BANK2   BANK3   BANK4   BANK5   BANK6
  2353 ;;      Params:         2       0       0       0       0       0       0       0
  2354 ;;      Locals:         2       0       0       0       0       0       0       0
  2355 ;;      Temps:          1       0       0       0       0       0       0       0
  2356 ;;      Totals:         5       0       0       0       0       0       0       0
  2357 ;;Total ram usage:        5 bytes
  2358 ;; Hardware stack levels used:    1
  2359 ;; Hardware stack levels required when called:    1
  2360 ;; This function calls:
  2361 ;;		___wmul
  2362 ;; This function is called by:
  2363 ;;		_lightup
  2364 ;; This function uses a non-reentrant model
  2365 ;;
  2366                           
  2367                           
  2368                           ;psect for function _turn_off_all
  2369  069F                     _turn_off_all:	
  2370  069F                     l1066:	
  2371                           ;incstack = 0
  2372                           ; Regs used in _turn_off_all: [wreg+status,2+status,0+pclath+cstack]
  2373                           
  2374                           
  2375                           ;main.c: 304:     int i = num * 3;
  2376  069F  0877               	movf	turn_off_all@num+1,w
  2377  06A0  00F1               	movwf	___wmul@multiplier+1
  2378  06A1  0876               	movf	turn_off_all@num,w
  2379  06A2  00F0               	movwf	___wmul@multiplier
  2380  06A3  3003               	movlw	3
  2381  06A4  00F2               	movwf	___wmul@multiplicand
  2382  06A5  3000               	movlw	0
  2383  06A6  00F3               	movwf	___wmul@multiplicand+1
  2384  06A7  3186  2680  3186   	fcall	___wmul
  2385  06AA  0871               	movf	?___wmul+1,w
  2386  06AB  00FA               	movwf	turn_off_all@i+1
  2387  06AC  0870               	movf	?___wmul,w
  2388  06AD  00F9               	movwf	turn_off_all@i
  2389                           
  2390                           ;main.c: 305:     while (i > 0) {
  2391  06AE  2EBA               	goto	l1072
  2392  06AF                     l228:	
  2393  06AF  002E               	movlb	14	; select bank14
  2394  06B0  1E0F               	btfss	15,4	;volatile
  2395  06B1  2EB3               	goto	u351
  2396  06B2  2EB4               	goto	u350
  2397  06B3                     u351:	
  2398  06B3  2EAF               	goto	l228
  2399  06B4                     u350:	
  2400  06B4                     l1068:	
  2401                           
  2402                           ;main.c: 307:         TX1REG = 0x00;
  2403  06B4  0022               	movlb	2	; select bank2
  2404  06B5  019A               	clrf	26	;volatile
  2405  06B6                     l1070:	
  2406                           
  2407                           ;main.c: 308:         --i;
  2408  06B6  30FF               	movlw	255
  2409  06B7  07F9               	addwf	turn_off_all@i,f
  2410  06B8  30FF               	movlw	255
  2411  06B9  3DFA               	addwfc	turn_off_all@i+1,f
  2412  06BA                     l1072:	
  2413                           
  2414                           ;main.c: 305:     while (i > 0) {
  2415  06BA  087A               	movf	turn_off_all@i+1,w
  2416  06BB  3A80               	xorlw	128
  2417  06BC  00F8               	movwf	??_turn_off_all
  2418  06BD  3080               	movlw	128
  2419  06BE  0278               	subwf	??_turn_off_all,w
  2420  06BF  1D03               	skipz
  2421  06C0  2EC3               	goto	u365
  2422  06C1  3001               	movlw	1
  2423  06C2  0279               	subwf	turn_off_all@i,w
  2424  06C3                     u365:	
  2425  06C3  1803               	skipnc
  2426  06C4  2EC6               	goto	u361
  2427  06C5  2EC7               	goto	u360
  2428  06C6                     u361:	
  2429  06C6  2EAF               	goto	l228
  2430  06C7                     u360:	
  2431  06C7                     l232:	
  2432  06C7  0008               	return
  2433  06C8                     __end_of_turn_off_all:	
  2434                           
  2435                           	psect	text8
  2436  0680                     __ptext8:	
  2437 ;; *************** function ___wmul *****************
  2438 ;; Defined at:
  2439 ;;		line 15 in file "C:\Program Files (x86)\Microchip\xc8\v2.10\pic\sources\c99\common\Umul16.c"
  2440 ;; Parameters:    Size  Location     Type
  2441 ;;  multiplier      2    0[COMMON] unsigned int 
  2442 ;;  multiplicand    2    2[COMMON] unsigned int 
  2443 ;; Auto vars:     Size  Location     Type
  2444 ;;  product         2    4[COMMON] unsigned int 
  2445 ;; Return value:  Size  Location     Type
  2446 ;;                  2    0[COMMON] unsigned int 
  2447 ;; Registers used:
  2448 ;;		wreg, status,2, status,0
  2449 ;; Tracked objects:
  2450 ;;		On entry : 0/0
  2451 ;;		On exit  : 0/0
  2452 ;;		Unchanged: 0/0
  2453 ;; Data sizes:     COMMON   BANK0   BANK1   BANK2   BANK3   BANK4   BANK5   BANK6
  2454 ;;      Params:         4       0       0       0       0       0       0       0
  2455 ;;      Locals:         2       0       0       0       0       0       0       0
  2456 ;;      Temps:          0       0       0       0       0       0       0       0
  2457 ;;      Totals:         6       0       0       0       0       0       0       0
  2458 ;;Total ram usage:        6 bytes
  2459 ;; Hardware stack levels used:    1
  2460 ;; This function calls:
  2461 ;;		Nothing
  2462 ;; This function is called by:
  2463 ;;		_turn_off_all
  2464 ;; This function uses a non-reentrant model
  2465 ;;
  2466                           
  2467                           
  2468                           ;psect for function ___wmul
  2469  0680                     ___wmul:	
  2470  0680                     l1034:	
  2471                           ;incstack = 0
  2472                           ; Regs used in ___wmul: [wreg+status,2+status,0]
  2473                           
  2474  0680  01F4               	clrf	___wmul@product
  2475  0681  01F5               	clrf	___wmul@product+1
  2476  0682                     l1036:	
  2477  0682  1C70               	btfss	___wmul@multiplier,0
  2478  0683  2E85               	goto	u311
  2479  0684  2E86               	goto	u310
  2480  0685                     u311:	
  2481  0685  2E8A               	goto	l384
  2482  0686                     u310:	
  2483  0686                     l1038:	
  2484  0686  0872               	movf	___wmul@multiplicand,w
  2485  0687  07F4               	addwf	___wmul@product,f
  2486  0688  0873               	movf	___wmul@multiplicand+1,w
  2487  0689  3DF5               	addwfc	___wmul@product+1,f
  2488  068A                     l384:	
  2489  068A  3001               	movlw	1
  2490  068B                     u325:	
  2491  068B  35F2               	lslf	___wmul@multiplicand,f
  2492  068C  0DF3               	rlf	___wmul@multiplicand+1,f
  2493  068D  0B89               	decfsz	9,f
  2494  068E  2E8B               	goto	u325
  2495  068F                     l1040:	
  2496  068F  3001               	movlw	1
  2497  0690                     u335:	
  2498  0690  36F1               	lsrf	___wmul@multiplier+1,f
  2499  0691  0CF0               	rrf	___wmul@multiplier,f
  2500  0692  0B89               	decfsz	9,f
  2501  0693  2E90               	goto	u335
  2502  0694                     l1042:	
  2503  0694  0870               	movf	___wmul@multiplier,w
  2504  0695  0471               	iorwf	___wmul@multiplier+1,w
  2505  0696  1D03               	btfss	3,2
  2506  0697  2E99               	goto	u341
  2507  0698  2E9A               	goto	u340
  2508  0699                     u341:	
  2509  0699  2E82               	goto	l1036
  2510  069A                     u340:	
  2511  069A                     l1044:	
  2512  069A  0875               	movf	___wmul@product+1,w
  2513  069B  00F1               	movwf	?___wmul+1
  2514  069C  0874               	movf	___wmul@product,w
  2515  069D  00F0               	movwf	?___wmul
  2516  069E                     l386:	
  2517  069E  0008               	return
  2518  069F                     __end_of___wmul:	
  2519                           
  2520                           	psect	text9
  2521  05AE                     __ptext9:	
  2522 ;; *************** function _out_reset *****************
  2523 ;; Defined at:
  2524 ;;		line 298 in file "main.c"
  2525 ;; Parameters:    Size  Location     Type
  2526 ;;		None
  2527 ;; Auto vars:     Size  Location     Type
  2528 ;;		None
  2529 ;; Return value:  Size  Location     Type
  2530 ;;                  1    wreg      void 
  2531 ;; Registers used:
  2532 ;;		wreg, status,2, status,0, pclath, cstack
  2533 ;; Tracked objects:
  2534 ;;		On entry : 0/0
  2535 ;;		On exit  : 0/0
  2536 ;;		Unchanged: 0/0
  2537 ;; Data sizes:     COMMON   BANK0   BANK1   BANK2   BANK3   BANK4   BANK5   BANK6
  2538 ;;      Params:         0       0       0       0       0       0       0       0
  2539 ;;      Locals:         0       0       0       0       0       0       0       0
  2540 ;;      Temps:          0       0       0       0       0       0       0       0
  2541 ;;      Totals:         0       0       0       0       0       0       0       0
  2542 ;;Total ram usage:        0 bytes
  2543 ;; Hardware stack levels used:    1
  2544 ;; Hardware stack levels required when called:    1
  2545 ;; This function calls:
  2546 ;;		_delay
  2547 ;; This function is called by:
  2548 ;;		_lightup
  2549 ;; This function uses a non-reentrant model
  2550 ;;
  2551                           
  2552                           
  2553                           ;psect for function _out_reset
  2554  05AE                     _out_reset:	
  2555  05AE                     l1050:	
  2556                           ;incstack = 0
  2557                           ; Regs used in _out_reset: [wreg+status,2+status,0+pclath+cstack]
  2558                           
  2559                           
  2560                           ;main.c: 299:     LATBbits.LATB5 = 0;
  2561  05AE  0020               	movlb	0	; select bank0
  2562  05AF  1297               	bcf	23,5	;volatile
  2563  05B0                     l1052:	
  2564                           
  2565                           ;main.c: 300:     delay(88);
  2566  05B0  3058               	movlw	88
  2567  05B1  00F0               	movwf	delay@delay_time
  2568  05B2  3000               	movlw	0
  2569  05B3  00F1               	movwf	delay@delay_time+1
  2570  05B4  3185  25E4  3185   	fcall	_delay
  2571  05B7                     l223:	
  2572  05B7  0008               	return
  2573  05B8                     __end_of_out_reset:	
  2574                           
  2575                           	psect	text10
  2576  05A5                     __ptext10:	
  2577 ;; *************** function _enable_out *****************
  2578 ;; Defined at:
  2579 ;;		line 264 in file "main.c"
  2580 ;; Parameters:    Size  Location     Type
  2581 ;;		None
  2582 ;; Auto vars:     Size  Location     Type
  2583 ;;		None
  2584 ;; Return value:  Size  Location     Type
  2585 ;;                  1    wreg      void 
  2586 ;; Registers used:
  2587 ;;		None
  2588 ;; Tracked objects:
  2589 ;;		On entry : 0/0
  2590 ;;		On exit  : 0/0
  2591 ;;		Unchanged: 0/0
  2592 ;; Data sizes:     COMMON   BANK0   BANK1   BANK2   BANK3   BANK4   BANK5   BANK6
  2593 ;;      Params:         0       0       0       0       0       0       0       0
  2594 ;;      Locals:         0       0       0       0       0       0       0       0
  2595 ;;      Temps:          0       0       0       0       0       0       0       0
  2596 ;;      Totals:         0       0       0       0       0       0       0       0
  2597 ;;Total ram usage:        0 bytes
  2598 ;; Hardware stack levels used:    1
  2599 ;; This function calls:
  2600 ;;		Nothing
  2601 ;; This function is called by:
  2602 ;;		_lightup
  2603 ;; This function uses a non-reentrant model
  2604 ;;
  2605                           
  2606                           
  2607                           ;psect for function _enable_out
  2608  05A5                     _enable_out:	
  2609  05A5                     l1048:	
  2610                           ;incstack = 0
  2611                           ; Regs used in _enable_out: []
  2612                           
  2613                           
  2614                           ;main.c: 266:     TX1STAbits.TXEN = 1;
  2615  05A5  0022               	movlb	2	; select bank2
  2616  05A6  169E               	bsf	30,5	;volatile
  2617                           
  2618                           ;main.c: 267:     TX1STAbits.SYNC = 1;
  2619  05A7  161E               	bsf	30,4	;volatile
  2620                           
  2621                           ;main.c: 268:     RC1STAbits.CREN = 0;
  2622  05A8  121D               	bcf	29,4	;volatile
  2623                           
  2624                           ;main.c: 271:     CWG1CON0bits.EN = 1;
  2625  05A9  002C               	movlb	12	; select bank12
  2626  05AA  1790               	bsf	16,7	;volatile
  2627                           
  2628                           ;main.c: 274:     CLC3CONbits.LC3EN = 1;
  2629  05AB  003C               	movlb	28	; select bank28
  2630  05AC  17A4               	bsf	36,7	;volatile
  2631  05AD                     l211:	
  2632  05AD  0008               	return
  2633  05AE                     __end_of_enable_out:	
  2634                           
  2635                           	psect	text11
  2636  05C4                     __ptext11:	
  2637 ;; *************** function _disable_out *****************
  2638 ;; Defined at:
  2639 ;;		line 284 in file "main.c"
  2640 ;; Parameters:    Size  Location     Type
  2641 ;;		None
  2642 ;; Auto vars:     Size  Location     Type
  2643 ;;		None
  2644 ;; Return value:  Size  Location     Type
  2645 ;;                  1    wreg      void 
  2646 ;; Registers used:
  2647 ;;		wreg, status,2, status,0, pclath, cstack
  2648 ;; Tracked objects:
  2649 ;;		On entry : 0/0
  2650 ;;		On exit  : 0/0
  2651 ;;		Unchanged: 0/0
  2652 ;; Data sizes:     COMMON   BANK0   BANK1   BANK2   BANK3   BANK4   BANK5   BANK6
  2653 ;;      Params:         0       0       0       0       0       0       0       0
  2654 ;;      Locals:         0       0       0       0       0       0       0       0
  2655 ;;      Temps:          0       0       0       0       0       0       0       0
  2656 ;;      Totals:         0       0       0       0       0       0       0       0
  2657 ;;Total ram usage:        0 bytes
  2658 ;; Hardware stack levels used:    1
  2659 ;; Hardware stack levels required when called:    1
  2660 ;; This function calls:
  2661 ;;		_delay
  2662 ;; This function is called by:
  2663 ;;		_lightup
  2664 ;; This function uses a non-reentrant model
  2665 ;;
  2666                           
  2667                           
  2668                           ;psect for function _disable_out
  2669  05C4                     _disable_out:	
  2670  05C4                     l1054:	
  2671                           ;incstack = 0
  2672                           ; Regs used in _disable_out: [wreg+status,2+status,0+pclath+cstack]
  2673                           
  2674                           
  2675                           ;main.c: 285:     delay(100);
  2676  05C4  3064               	movlw	100
  2677  05C5  00F0               	movwf	delay@delay_time
  2678  05C6  3000               	movlw	0
  2679  05C7  00F1               	movwf	delay@delay_time+1
  2680  05C8  3185  25E4  3185   	fcall	_delay
  2681  05CB                     l1056:	
  2682                           
  2683                           ;main.c: 287:     TX1STAbits.TXEN = 0;
  2684  05CB  0022               	movlb	2	; select bank2
  2685  05CC  129E               	bcf	30,5	;volatile
  2686  05CD                     l1058:	
  2687                           
  2688                           ;main.c: 288:     TX1STAbits.SYNC = 0;
  2689  05CD  121E               	bcf	30,4	;volatile
  2690  05CE                     l1060:	
  2691                           
  2692                           ;main.c: 289:     RC1STAbits.CREN = 1;
  2693  05CE  161D               	bsf	29,4	;volatile
  2694  05CF                     l1062:	
  2695                           
  2696                           ;main.c: 292:     CWG1CON0bits.EN = 0;
  2697  05CF  002C               	movlb	12	; select bank12
  2698  05D0  1390               	bcf	16,7	;volatile
  2699  05D1                     l1064:	
  2700                           
  2701                           ;main.c: 295:     CLC3CONbits.LC3EN = 0;
  2702  05D1  003C               	movlb	28	; select bank28
  2703  05D2  13A4               	bcf	36,7	;volatile
  2704  05D3                     l220:	
  2705  05D3  0008               	return
  2706  05D4                     __end_of_disable_out:	
  2707                           
  2708                           	psect	text12
  2709  05E4                     __ptext12:	
  2710 ;; *************** function _delay *****************
  2711 ;; Defined at:
  2712 ;;		line 277 in file "main.c"
  2713 ;; Parameters:    Size  Location     Type
  2714 ;;  delay_time      2    0[COMMON] int 
  2715 ;; Auto vars:     Size  Location     Type
  2716 ;;  i               2    3[COMMON] int 
  2717 ;; Return value:  Size  Location     Type
  2718 ;;                  1    wreg      void 
  2719 ;; Registers used:
  2720 ;;		wreg
  2721 ;; Tracked objects:
  2722 ;;		On entry : 0/0
  2723 ;;		On exit  : 0/0
  2724 ;;		Unchanged: 0/0
  2725 ;; Data sizes:     COMMON   BANK0   BANK1   BANK2   BANK3   BANK4   BANK5   BANK6
  2726 ;;      Params:         2       0       0       0       0       0       0       0
  2727 ;;      Locals:         2       0       0       0       0       0       0       0
  2728 ;;      Temps:          1       0       0       0       0       0       0       0
  2729 ;;      Totals:         5       0       0       0       0       0       0       0
  2730 ;;Total ram usage:        5 bytes
  2731 ;; Hardware stack levels used:    1
  2732 ;; This function calls:
  2733 ;;		Nothing
  2734 ;; This function is called by:
  2735 ;;		_disable_out
  2736 ;;		_out_reset
  2737 ;; This function uses a non-reentrant model
  2738 ;;
  2739                           
  2740                           
  2741                           ;psect for function _delay
  2742  05E4                     _delay:	
  2743  05E4                     l1030:	
  2744                           ;incstack = 0
  2745                           ; Regs used in _delay: [wreg]
  2746                           
  2747                           
  2748                           ;main.c: 278:     int i = delay_time;
  2749  05E4  0871               	movf	delay@delay_time+1,w
  2750  05E5  00F4               	movwf	delay@i+1
  2751  05E6  0870               	movf	delay@delay_time,w
  2752  05E7  00F3               	movwf	delay@i
  2753                           
  2754                           ;main.c: 279:     while (i > 0) {
  2755  05E8  2DED               	goto	l214
  2756  05E9                     l1032:	
  2757                           
  2758                           ;main.c: 280:         --i;
  2759  05E9  30FF               	movlw	255
  2760  05EA  07F3               	addwf	delay@i,f
  2761  05EB  30FF               	movlw	255
  2762  05EC  3DF4               	addwfc	delay@i+1,f
  2763  05ED                     l214:	
  2764                           ;main.c: 281:     }
  2765                           
  2766                           
  2767                           ;main.c: 279:     while (i > 0) {
  2768  05ED  0874               	movf	delay@i+1,w
  2769  05EE  3A80               	xorlw	128
  2770  05EF  00F2               	movwf	??_delay
  2771  05F0  3080               	movlw	128
  2772  05F1  0272               	subwf	??_delay,w
  2773  05F2  1D03               	skipz
  2774  05F3  2DF6               	goto	u305
  2775  05F4  3001               	movlw	1
  2776  05F5  0273               	subwf	delay@i,w
  2777  05F6                     u305:	
  2778  05F6  1803               	skipnc
  2779  05F7  2DF9               	goto	u301
  2780  05F8  2DFA               	goto	u300
  2781  05F9                     u301:	
  2782  05F9  2DE9               	goto	l1032
  2783  05FA                     u300:	
  2784  05FA                     l217:	
  2785  05FA  0008               	return
  2786  05FB                     __end_of_delay:	
  2787                           
  2788                           	psect	text13
  2789  062D                     __ptext13:	
  2790 ;; *************** function _init_port *****************
  2791 ;; Defined at:
  2792 ;;		line 156 in file "main.c"
  2793 ;; Parameters:    Size  Location     Type
  2794 ;;		None
  2795 ;; Auto vars:     Size  Location     Type
  2796 ;;		None
  2797 ;; Return value:  Size  Location     Type
  2798 ;;                  1    wreg      void 
  2799 ;; Registers used:
  2800 ;;		None
  2801 ;; Tracked objects:
  2802 ;;		On entry : 0/0
  2803 ;;		On exit  : 0/0
  2804 ;;		Unchanged: 0/0
  2805 ;; Data sizes:     COMMON   BANK0   BANK1   BANK2   BANK3   BANK4   BANK5   BANK6
  2806 ;;      Params:         0       0       0       0       0       0       0       0
  2807 ;;      Locals:         0       0       0       0       0       0       0       0
  2808 ;;      Temps:          0       0       0       0       0       0       0       0
  2809 ;;      Totals:         0       0       0       0       0       0       0       0
  2810 ;;Total ram usage:        0 bytes
  2811 ;; Hardware stack levels used:    1
  2812 ;; This function calls:
  2813 ;;		Nothing
  2814 ;; This function is called by:
  2815 ;;		_main
  2816 ;; This function uses a non-reentrant model
  2817 ;;
  2818                           
  2819                           
  2820                           ;psect for function _init_port
  2821  062D                     _init_port:	
  2822  062D                     l888:	
  2823                           ;incstack = 0
  2824                           ; Regs used in _init_port: []
  2825                           
  2826                           
  2827                           ;main.c: 158:     TRISAbits.TRISA0 = 1;
  2828  062D  0020               	movlb	0	; select bank0
  2829  062E  1411               	bsf	17,0	;volatile
  2830                           
  2831                           ;main.c: 159:     ANSELAbits.ANSA0 = 0;
  2832  062F  003E               	movlb	30	; select bank30
  2833  0630  1038               	bcf	56,0	;volatile
  2834                           
  2835                           ;main.c: 160:     WPUAbits.WPUA0 = 1;
  2836  0631  1439               	bsf	57,0	;volatile
  2837                           
  2838                           ;main.c: 162:     TRISCbits.TRISC1 = 0;
  2839  0632  0020               	movlb	0	; select bank0
  2840  0633  1093               	bcf	19,1	;volatile
  2841                           
  2842                           ;main.c: 163:     ANSELCbits.ANSC1 = 0;
  2843  0634  003E               	movlb	30	; select bank30
  2844  0635  10CE               	bcf	78,1	;volatile
  2845                           
  2846                           ;main.c: 165:     TRISCbits.TRISC2 = 0;
  2847  0636  0020               	movlb	0	; select bank0
  2848  0637  1113               	bcf	19,2	;volatile
  2849                           
  2850                           ;main.c: 166:     ANSELCbits.ANSC2 = 0;
  2851  0638  003E               	movlb	30	; select bank30
  2852  0639  114E               	bcf	78,2	;volatile
  2853                           
  2854                           ;main.c: 168:     TRISCbits.TRISC3 = 0;
  2855  063A  0020               	movlb	0	; select bank0
  2856  063B  1193               	bcf	19,3	;volatile
  2857                           
  2858                           ;main.c: 169:     ANSELCbits.ANSC3 = 0;
  2859  063C  003E               	movlb	30	; select bank30
  2860  063D  11CE               	bcf	78,3	;volatile
  2861                           
  2862                           ;main.c: 171:     TRISCbits.TRISC6 = 0;
  2863  063E  0020               	movlb	0	; select bank0
  2864  063F  1313               	bcf	19,6	;volatile
  2865                           
  2866                           ;main.c: 172:     ANSELCbits.ANSC6 = 0;
  2867  0640  003E               	movlb	30	; select bank30
  2868  0641  134E               	bcf	78,6	;volatile
  2869                           
  2870                           ;main.c: 174:     TRISCbits.TRISC7 = 1;
  2871  0642  0020               	movlb	0	; select bank0
  2872  0643  1793               	bsf	19,7	;volatile
  2873                           
  2874                           ;main.c: 175:     ANSELCbits.ANSC7 = 0;
  2875  0644  003E               	movlb	30	; select bank30
  2876  0645  13CE               	bcf	78,7	;volatile
  2877  0646                     l196:	
  2878  0646  0008               	return
  2879  0647                     __end_of_init_port:	
  2880                           
  2881                           	psect	text14
  2882  0595                     __ptext14:	
  2883 ;; *************** function _init_oc *****************
  2884 ;; Defined at:
  2885 ;;		line 133 in file "main.c"
  2886 ;; Parameters:    Size  Location     Type
  2887 ;;		None
  2888 ;; Auto vars:     Size  Location     Type
  2889 ;;		None
  2890 ;; Return value:  Size  Location     Type
  2891 ;;                  1    wreg      void 
  2892 ;; Registers used:
  2893 ;;		wreg, status,2, status,0
  2894 ;; Tracked objects:
  2895 ;;		On entry : 0/0
  2896 ;;		On exit  : 0/0
  2897 ;;		Unchanged: 0/0
  2898 ;; Data sizes:     COMMON   BANK0   BANK1   BANK2   BANK3   BANK4   BANK5   BANK6
  2899 ;;      Params:         0       0       0       0       0       0       0       0
  2900 ;;      Locals:         0       0       0       0       0       0       0       0
  2901 ;;      Temps:          0       0       0       0       0       0       0       0
  2902 ;;      Totals:         0       0       0       0       0       0       0       0
  2903 ;;Total ram usage:        0 bytes
  2904 ;; Hardware stack levels used:    1
  2905 ;; This function calls:
  2906 ;;		Nothing
  2907 ;; This function is called by:
  2908 ;;		_main
  2909 ;; This function uses a non-reentrant model
  2910 ;;
  2911                           
  2912                           
  2913                           ;psect for function _init_oc
  2914  0595                     _init_oc:	
  2915  0595                     l886:	
  2916                           ;incstack = 0
  2917                           ; Regs used in _init_oc: [wreg+status,2+status,0]
  2918                           
  2919                           
  2920                           ;main.c: 134:     OSCCON1bits.NOSC = 0b000;
  2921  0595  308F               	movlw	-113
  2922  0596  0031               	movlb	17	; select bank17
  2923  0597  058D               	andwf	13,f	;volatile
  2924                           
  2925                           ;main.c: 135:     OSCCON1bits.NDIV = 0b0000;
  2926  0598  30F0               	movlw	-16
  2927  0599  058D               	andwf	13,f	;volatile
  2928                           
  2929                           ;main.c: 136:     OSCFRQbits.HFFRQ = 0b0111;
  2930  059A  3007               	movlw	7
  2931  059B  0493               	iorwf	19,f	;volatile
  2932  059C                     l190:	
  2933  059C  0008               	return
  2934  059D                     __end_of_init_oc:	
  2935  007E                     btemp	set	126	;btemp
  2936  007E                     wtemp0	set	126


Data Sizes:
    Strings     0
    Constant    0
    Data        16
    BSS         0
    Persistent  32
    Stack       0

Auto Spaces:
    Space          Size  Autos    Used
    COMMON           14     14      14
    BANK0            80     13      29
    BANK1            80      0       0
    BANK2            80      0       0
    BANK3            80      0       0
    BANK4            80      0       0
    BANK5            80      0       0
    BANK6            16      0       0

Pointer List with Targets:

    None.

Critical Paths under _main in COMMON

    _main->_lightup
    _lightup->_turn_off_all
    _turn_off_all->___wmul
    _out_reset->_delay
    _disable_out->_delay

Critical Paths under _main in BANK0

    _main->_lightup

Critical Paths under _main in BANK1

    None.

Critical Paths under _main in BANK2

    None.

Critical Paths under _main in BANK3

    None.

Critical Paths under _main in BANK4

    None.

Critical Paths under _main in BANK5

    None.

Critical Paths under _main in BANK6

    None.

Call Graph Tables:

 ---------------------------------------------------------------------------------
 (Depth) Function   	        Calls       Base Space   Used Autos Params    Refs
 ---------------------------------------------------------------------------------
 (0) _main                                                 0     0      0    1058
                            _init_oc
                          _init_port
                            _lightup
                            _set_clc
                            _set_cwg
                         _set_eusart
                      _set_interrupt
                            _set_pps
 ---------------------------------------------------------------------------------
 (1) _set_pps                                              0     0      0       0
 ---------------------------------------------------------------------------------
 (1) _set_interrupt                                        0     0      0       0
 ---------------------------------------------------------------------------------
 (1) _set_eusart                                           0     0      0       0
 ---------------------------------------------------------------------------------
 (1) _set_cwg                                              0     0      0       0
 ---------------------------------------------------------------------------------
 (1) _set_clc                                              0     0      0       0
 ---------------------------------------------------------------------------------
 (1) _lightup                                             16    16      0    1058
                                             11 COMMON     3     3      0
                                              0 BANK0     13    13      0
                        _disable_out
                         _enable_out
                          _out_reset
                       _turn_off_all
 ---------------------------------------------------------------------------------
 (2) _turn_off_all                                         5     3      2     366
                                              6 COMMON     5     3      2
                             ___wmul
 ---------------------------------------------------------------------------------
 (3) ___wmul                                               6     2      4     244
                                              0 COMMON     6     2      4
 ---------------------------------------------------------------------------------
 (2) _out_reset                                            0     0      0     198
                              _delay
 ---------------------------------------------------------------------------------
 (2) _enable_out                                           0     0      0       0
 ---------------------------------------------------------------------------------
 (2) _disable_out                                          0     0      0     198
                              _delay
 ---------------------------------------------------------------------------------
 (3) _delay                                                5     3      2     198
                                              0 COMMON     5     3      2
 ---------------------------------------------------------------------------------
 (1) _init_port                                            0     0      0       0
 ---------------------------------------------------------------------------------
 (1) _init_oc                                              0     0      0       0
 ---------------------------------------------------------------------------------
 Estimated maximum stack depth 3
 ---------------------------------------------------------------------------------

 Call Graph Graphs:

 _main (ROOT)
   _init_oc
   _init_port
   _lightup
     _disable_out
       _delay
     _enable_out
     _out_reset
       _delay
     _turn_off_all
       ___wmul
   _set_clc
   _set_cwg
   _set_eusart
   _set_interrupt
   _set_pps

 Address spaces:
Name               Size   Autos  Total    Cost      Usage
BIGRAM             1F0      0       0       0        0.0%
EEDATA             100      0       0       0        0.0%
NULL                 0      0       0       0        0.0%
CODE                 0      0       0       0        0.0%
BITCOMMON            E      0       0       1        0.0%
BITSFR0              0      0       0       1        0.0%
SFR0                 0      0       0       1        0.0%
COMMON               E      E       E       2      100.0%
BITSFR1              0      0       0       2        0.0%
SFR1                 0      0       0       2        0.0%
BITSFR2              0      0       0       3        0.0%
SFR2                 0      0       0       3        0.0%
STACK                0      0       0       3        0.0%
BITSFR3              0      0       0       4        0.0%
SFR3                 0      0       0       4        0.0%
ABS                  0      0      2B       4        0.0%
BITBANK0            50      0       0       5        0.0%
BITSFR4              0      0       0       5        0.0%
SFR4                 0      0       0       5        0.0%
BANK0               50      D      1D       6       36.3%
BITSFR5              0      0       0       6        0.0%
SFR5                 0      0       0       6        0.0%
BITBANK1            50      0       0       7        0.0%
BITSFR6              0      0       0       7        0.0%
SFR6                 0      0       0       7        0.0%
BANK1               50      0       0       8        0.0%
BITSFR7              0      0       0       8        0.0%
SFR7                 0      0       0       8        0.0%
BITBANK2            50      0       0       9        0.0%
BITSFR8              0      0       0       9        0.0%
SFR8                 0      0       0       9        0.0%
BANK2               50      0       0      10        0.0%
BITSFR9              0      0       0      10        0.0%
SFR9                 0      0       0      10        0.0%
BITBANK3            50      0       0      11        0.0%
BITSFR10             0      0       0      11        0.0%
SFR10                0      0       0      11        0.0%
BANK3               50      0       0      12        0.0%
BITSFR11             0      0       0      12        0.0%
SFR11                0      0       0      12        0.0%
BITBANK4            50      0       0      13        0.0%
BITSFR12             0      0       0      13        0.0%
SFR12                0      0       0      13        0.0%
BANK4               50      0       0      14        0.0%
BITSFR13             0      0       0      14        0.0%
SFR13                0      0       0      14        0.0%
BITBANK5            50      0       0      15        0.0%
BITSFR14             0      0       0      15        0.0%
SFR14                0      0       0      15        0.0%
BANK5               50      0       0      16        0.0%
BITSFR15             0      0       0      16        0.0%
SFR15                0      0       0      16        0.0%
BITBANK6            10      0       0      17        0.0%
BITSFR16             0      0       0      17        0.0%
SFR16                0      0       0      17        0.0%
BANK6               10      0       0      18        0.0%
BITSFR17             0      0       0      18        0.0%
SFR17                0      0       0      18        0.0%
BITSFR18             0      0       0      19        0.0%
SFR18                0      0       0      19        0.0%
DATA                 0      0      2B      19        0.0%
BITSFR19             0      0       0      20        0.0%
SFR19                0      0       0      20        0.0%
BITSFR20             0      0       0      21        0.0%
SFR20                0      0       0      21        0.0%
BITSFR21             0      0       0      22        0.0%
SFR21                0      0       0      22        0.0%
BITSFR22             0      0       0      23        0.0%
SFR22                0      0       0      23        0.0%
BITSFR23             0      0       0      24        0.0%
SFR23                0      0       0      24        0.0%
BITSFR24             0      0       0      25        0.0%
SFR24                0      0       0      25        0.0%
BITSFR25             0      0       0      26        0.0%
SFR25                0      0       0      26        0.0%
BITSFR26             0      0       0      27        0.0%
SFR26                0      0       0      27        0.0%
BITSFR27             0      0       0      28        0.0%
SFR27                0      0       0      28        0.0%
BITSFR28             0      0       0      29        0.0%
SFR28                0      0       0      29        0.0%
BITSFR29             0      0       0      30        0.0%
SFR29                0      0       0      30        0.0%
BITSFR30             0      0       0      31        0.0%
SFR30                0      0       0      31        0.0%
BITSFR31             0      0       0      32        0.0%
SFR31                0      0       0      32        0.0%


Microchip Technology PIC Macro Assembler V2.10 build 88905656 
Symbol Table                                                                                   Fri Aug 21 12:58:22 2020

    ___wmul@multiplicand 0072                      l202 062C                      l211 05AD  
                    l220 05D3                      l140 0764                      l205 067F  
                    l214 05ED                      l150 0783                      l134 0754  
                    l223 05B7                      l232 06C7                      l160 079E  
                    l208 0613                      l217 05FA                      l153 078A  
                    l137 075B                      l163 07A5                      l147 077A  
                    l228 06AF                      l172 07B6                      l190 059C  
                    l166 07AC                      l175 07BD                      l193 05A4  
                    l178 07C4                      l187 07F0                      l196 0646  
                    l199 05C3                      l384 068A                      l386 069E  
                    l900 05B8                      l910 05BF                      l902 05BA  
                    l920 0667                      l912 05C0                      l904 05BC  
                    l930 0679                      l922 066B                      l914 05C1  
                    l906 05BD                      l940 0607                      l932 067C  
                    l924 066D                      l916 05C2                      l908 05BE  
                    l942 060A                      l934 067E                      l926 066F  
                    l918 0662                      l944 060D                      l936 05FB  
                    l928 0678                      l946 0610                      l938 05FD  
                    l890 059D                      l948 0611                      l892 05A2  
                    l886 0595                      l894 0614                      l888 062D  
                    l896 0629                      l898 062A                      u300 05FA  
                    u301 05F9                      u310 0686                      u311 0685  
                    u305 05F6                      u410 0743                      u411 0742  
                    u340 069A                      u500 079E                      u420 0754  
                    u341 0699                      u325 068B                      u501 079D  
                    u421 0753                      u405 071E                      u350 06B4  
                    u510 07A3                      u430 0759                      u335 0690  
                    u351 06B3                      u511 07A2                      u431 0758  
                    u415 073F                      u360 06C7                      u520 07AA  
                    u440 0760                      u361 06C6                      u521 07A9  
                    u505 079A                      u441 075F                      u425 0750  
                    u530 07B1                      u450 0769                      u370 06E3  
                    u531 07B0                      u451 0768                      u371 06E2  
                    u540 07BB                      u460 077A                      u365 06C3  
                    u541 07BA                      u461 0779                      u550 07C2  
                    u470 077F                      u551 07C1                      u471 077E  
                    u560 07C9                      u480 0788                      u561 07C8  
                    u481 0787                      u465 0776                      u385 06F0  
                    u570 07D6                      u490 078F                      u571 07D5  
                    u491 078E                      u395 0707                      u580 07E6  
                    u581 07E5                      wreg 0009             _BAUD1CONbits 011F  
                   l1100 0759                     l1030 05E4                     l1110 0788  
                   l1102 0760                     l1032 05E9                     l1040 068F  
                   l1120 07B1                     l1104 0769                     l1050 05AE  
                   l1042 0694                     l1034 0680                     l1130 07D6  
                   l1122 07BB                     l1114 0790                     l1106 076C  
                   l1060 05CE                     l1052 05B0                     l1044 069A  
                   l1036 0682                     l1132 07D8                     l1124 07C2  
                   l1116 07A3                     l1108 077F                     l1062 05CF  
                   l1054 05C4                     l1038 0686                     l1070 06B6  
                   l1142 07E6                     l1134 07DB                     l1118 07AA  
                   l1150 064D                     l1064 05D1                     l1056 05CB  
                   l1048 05A5                     l1072 06BA                     l1136 07DE  
                   l1128 07CA                     l1080 06D1                     l1152 065C  
                   l1058 05CD                     l1066 069F                     l1138 07E1  
                   l1090 0704                     l1082 06D7                     l1074 06C8  
                   l1146 0647                     l1068 06B4                     l1092 071B  
                   l1084 06E3                     l1076 06CD                     l1148 064A  
                   l1094 0732                     l1086 06E5                     l1078 06CF  
                   l1096 0743                     l1088 06ED                     l1098 0746  
          turn_off_all@i 0079                     _main 0647                     fsr0h 0005  
                   fsr1h 0007                     fsr0l 0004                     indf1 0001  
                   fsr1l 0006                     btemp 007E                     start 0002  
                  ?_main 0070            __CFG_WDTE$OFF 0000             _CLC3SEL0bits 0E26  
           _CLC3SEL1bits 0E27             _CLC3SEL2bits 0E28             _CLC3SEL3bits 0E29  
                  _delay 05E4          __end_of_init_oc 059D          __end_of_lightup 07F1  
        __end_of_set_clc 0614          __end_of_set_cwg 0680          __end_of_set_pps 062D  
                  status 0003                    wtemp0 007E          __initialization 07F1  
         _CWG1CLKCONbits 060C             __end_of_main 0662    __size_of_turn_off_all 0029  
                 ??_main 007E                   ?_delay 0070                   _RC0PPS 0F20  
                 _RC1PPS 0F21                   _RC2PPS 0F22                   _RC3PPS 0F23  
                 _RB5PPS 0F1D     __size_of_disable_out 0010                   _INTPPS 0E90  
                 _TX1REG 011A             _turn_off_all 069F                   ___wmul 0680  
        turn_off_all@num 0076                   delay@i 0073                ??_init_oc 0070  
              ??_lightup 007B                ??_set_clc 0070                ??_set_cwg 0070  
              ??_set_pps 0070  __end_of__initialization 07FD           __pcstackCOMMON 0070  
           __pidataBANK0 05D4            __end_of_delay 05FB    __end_of_set_interrupt 05A5  
           _CWG1CON0bits 0610                  ??_delay 0072       __size_of_init_port 001A  
             __pmaintext 0647                  ?___wmul 0070               _enable_out 05A5  
    __CFG_RSTOSC$HFINT32 0000                  _CWG1DBF 060F                  _CWG1DBR 060E  
                _CWG1PPS 0EB1                  _SP1BRGH 011C                  _SP1BRGL 011B  
     __size_of_out_reset 000A                _CLCIN2PPS 0EBD                _CLCIN3PPS 0EBE  
        __size_of___wmul 001F                  __ptext1 0614                  __ptext2 059D  
                __ptext3 05B8                  __ptext4 0662                  __ptext5 05FB  
                __ptext6 06C8                  __ptext7 069F                  __ptext8 0680  
                __ptext9 05AE                  _led_arr 0020                  _init_oc 0595  
                _lightup 06C8        __end_of_init_port 0647                  _set_clc 05FB  
                _set_cwg 0662                  _set_pps 0614     end_of_initialization 07FD  
                init_ram 058F                  initloop 0590               _set_eusart 05B8  
      __end_of_out_reset 05B8              ?_enable_out 0070                _PORTAbits 000C  
        lightup@led_addr 0038                _TRISAbits 0011                _TRISBbits 0012  
              _TRISCbits 0013            ??_disable_out 0075              _CLC3CONbits 0E24  
         __end_of___wmul 069F              _CLC3POLbits 0E25      start_initialization 07F1  
    __size_of_enable_out 0009      __end_of_disable_out 05D4              ?_set_eusart 0070  
               ??___wmul 0074              __pdataBANK0 0020          delay@delay_time 0070  
              ___latbits 0001            __pcstackBANK0 0030              _CWG1AS0bits 0612  
            _CWG1AS1bits 0613   __size_of_set_interrupt 0008              _CWG1ISMbits 060D  
               _CLC3GLS0 0E2A                 _CLC3GLS1 0E2B                 _CLC3GLS2 0E2C  
               _CLC3GLS3 0E2D                 ?_init_oc 0070                 ?_lightup 0070  
               ?_set_clc 0070                 ?_set_cwg 0070                 ?_set_pps 0070  
            _disable_out 05C4           __size_of_delay 0017      __size_of_set_eusart 000C  
              _init_port 062D           ___wmul@product 0074                 _LATBbits 0017  
               _PIE0bits 0716            ?_turn_off_all 0076                 _PIR3bits 070F  
           ??_enable_out 0070           lightup@led_val 003A            _set_interrupt 059D  
              _out_reset 05AE        ___wmul@multiplier 0070                 _WPUAbits 0F39  
             ?_init_port 0070       __end_of_enable_out 05AE           ??_turn_off_all 0078  
         ?_set_interrupt 0070               ?_out_reset 0070               _ANSELAbits 0F38  
             _ANSELBbits 0F43               _ANSELCbits 0F4E         __size_of_init_oc 0008  
       __size_of_lightup 0129                 __ptext10 05A5                 __ptext11 05C4  
               __ptext12 05E4                 __ptext13 062D                 __ptext14 0595  
       __size_of_set_clc 0019         __size_of_set_cwg 001E         __size_of_set_pps 0019  
            _OSCCON1bits 088D            __size_of_main 001B               _RC1STAbits 011D  
           ??_set_eusart 0070            lightup@status 003B               _INTCONbits 000B  
               lightup@B 0034                 lightup@G 0032                 lightup@R 0030  
               lightup@i 0036              ??_init_port 0070       __end_of_set_eusart 05C4  
             _OSCFRQbits 0893          ??_set_interrupt 0070              ??_out_reset 0075  
   __end_of_turn_off_all 06C8             ?_disable_out 0070               _TX1STAbits 011E  
