

Microchip MPLAB XC8 Assembler V2.10 build 88905656 
                                                                                               Mon Sep 14 22:41:35 2020

Microchip MPLAB XC8 C Compiler v2.10 (Free license) build 20190730164152 Og1 
     1                           	processor	16F18854
     2                           	opt	pw 120
     3                           	opt	flic
     4                           	psect	idataBANK0,global,class=CODE,delta=2
     5                           	psect	cinit,global,class=CODE,merge=1,delta=2
     6                           	psect	bssBANK0,global,class=BANK0,space=1,delta=1
     7                           	psect	dataBANK0,global,class=BANK0,space=1,delta=1
     8                           	psect	inittext,global,class=CODE,delta=2
     9                           	psect	clrtext,global,class=CODE,delta=2
    10                           	psect	cstackBANK1,global,class=BANK1,space=1,delta=1
    11                           	psect	cstackCOMMON,global,class=COMMON,space=1,delta=1
    12                           	psect	cstackBANK0,global,class=BANK0,space=1,delta=1
    13                           	psect	maintext,global,class=CODE,merge=1,split=1,delta=2
    14                           	psect	text1,local,class=CODE,merge=1,delta=2
    15                           	psect	text2,local,class=CODE,merge=1,delta=2
    16                           	psect	text3,local,class=CODE,merge=1,delta=2
    17                           	psect	text4,local,class=CODE,merge=1,delta=2
    18                           	psect	text5,local,class=CODE,merge=1,delta=2
    19                           	psect	text6,local,class=CODE,merge=1,delta=2
    20                           	psect	text7,local,class=CODE,merge=1,delta=2
    21                           	psect	text8,local,class=CODE,merge=1,delta=2
    22                           	psect	text9,local,class=CODE,merge=1,delta=2
    23                           	psect	text10,local,class=CODE,merge=1,delta=2
    24                           	psect	text11,local,class=CODE,merge=1,delta=2
    25                           	psect	text12,local,class=CODE,merge=1,delta=2
    26                           	psect	intentry,global,class=CODE,delta=2
    27                           	psect	text14,local,class=CODE,merge=1,delta=2
    28                           	psect	text15,local,class=CODE,merge=1,delta=2
    29                           	psect	text16,local,class=CODE,merge=1,delta=2,group=1
    30                           	psect	text17,local,class=CODE,merge=1,delta=2
    31                           	psect	text18,local,class=CODE,merge=1,delta=2
    32                           	psect	text19,local,class=CODE,merge=1,delta=2
    33                           	psect	text20,local,class=CODE,merge=1,delta=2
    34                           	psect	text21,local,class=CODE,merge=1,delta=2
    35                           	psect	text22,local,class=CODE,merge=1,delta=2
    36                           	psect	text23,local,class=CODE,merge=1,delta=2
    37                           	psect	text24,local,class=CODE,merge=1,delta=2
    38                           	psect	text25,local,class=CODE,merge=1,delta=2
    39                           	dabs	1,0x7E,2
    40  0000                     
    41                           ; Version 2.10
    42                           ; Generated 31/07/2019 GMT
    43                           ; 
    44                           ; Copyright © 2019, Microchip Technology Inc. and its subsidiaries ("Microchip")
    45                           ; All rights reserved.
    46                           ; 
    47                           ; This software is developed by Microchip Technology Inc. and its subsidiaries ("Microch
      +                          ip").
    48                           ; 
    49                           ; Redistribution and use in source and binary forms, with or without modification, are
    50                           ; permitted provided that the following conditions are met:
    51                           ; 
    52                           ;     1. Redistributions of source code must retain the above copyright notice, this lis
      +                          t of
    53                           ;        conditions and the following disclaimer.
    54                           ; 
    55                           ;     2. Redistributions in binary form must reproduce the above copyright notice, this 
      +                          list
    56                           ;        of conditions and the following disclaimer in the documentation and/or other
    57                           ;        materials provided with the distribution.
    58                           ; 
    59                           ;     3. Microchip's name may not be used to endorse or promote products derived from th
      +                          is
    60                           ;        software without specific prior written permission.
    61                           ; 
    62                           ; THIS SOFTWARE IS PROVIDED BY MICROCHIP "AS IS" AND ANY EXPRESS OR IMPLIED WARRANTIES,
    63                           ; INCLUDING, BUT NOT LIMITED TO, THE IMPLIED WARRANTIES OF MERCHANTABILITY AND FITNESS F
      +                          OR
    64                           ; PURPOSE ARE DISCLAIMED.  IN NO EVENT SHALL MICROCHIP BE LIABLE FOR ANY DIRECT, INDIREC
      +                          T,
    65                           ; INCIDENTAL, SPECIAL, EXEMPLARY, OR CONSEQUENTIAL DAMAGES (INCLUDING BUT NOT LIMITED TO
    66                           ; PROCUREMENT OF SUBSTITUTE GOODS OR SERVICES; LOSS OF USE, DATA OR PROFITS; OR BUSINESS
    67                           ; INTERRUPTION) HOWSOEVER CAUSED AND ON ANY THEORY OF LIABILITY, WHETHER IN CONTRACT, ST
      +                          RICT
    68                           ; LIABILITY, OR TORT (INCLUDING NEGLIGENCE OR OTHERWISE) ARISING IN ANY WAY OUT OF THE U
      +                          SE OF
    69                           ; THIS SOFTWARE, EVEN IF ADVISED OF THE POSSIBILITY OF SUCH DAMAGE.
    70                           ; 
    71                           ; 
    72                           ; Code-generator required, PIC16F18854 Definitions
    73                           ; 
    74                           ; SFR Addresses
    75  0000                     	;# 
    76  0001                     	;# 
    77  0002                     	;# 
    78  0003                     	;# 
    79  0004                     	;# 
    80  0005                     	;# 
    81  0006                     	;# 
    82  0007                     	;# 
    83  0008                     	;# 
    84  0009                     	;# 
    85  000A                     	;# 
    86  000B                     	;# 
    87  000C                     	;# 
    88  000D                     	;# 
    89  000E                     	;# 
    90  0010                     	;# 
    91  0011                     	;# 
    92  0012                     	;# 
    93  0013                     	;# 
    94  0016                     	;# 
    95  0017                     	;# 
    96  0018                     	;# 
    97  001C                     	;# 
    98  001C                     	;# 
    99  001D                     	;# 
   100  001D                     	;# 
   101  001E                     	;# 
   102  001F                     	;# 
   103  008C                     	;# 
   104  008C                     	;# 
   105  008D                     	;# 
   106  008E                     	;# 
   107  008E                     	;# 
   108  008F                     	;# 
   109  0090                     	;# 
   110  0090                     	;# 
   111  0091                     	;# 
   112  0093                     	;# 
   113  0094                     	;# 
   114  0095                     	;# 
   115  0096                     	;# 
   116  0097                     	;# 
   117  0098                     	;# 
   118  0099                     	;# 
   119  009A                     	;# 
   120  009B                     	;# 
   121  009C                     	;# 
   122  009D                     	;# 
   123  009E                     	;# 
   124  010C                     	;# 
   125  010D                     	;# 
   126  010E                     	;# 
   127  010E                     	;# 
   128  010F                     	;# 
   129  0110                     	;# 
   130  0110                     	;# 
   131  0111                     	;# 
   132  0112                     	;# 
   133  0112                     	;# 
   134  0113                     	;# 
   135  0114                     	;# 
   136  0114                     	;# 
   137  0115                     	;# 
   138  0116                     	;# 
   139  0116                     	;# 
   140  0117                     	;# 
   141  0119                     	;# 
   142  0119                     	;# 
   143  0119                     	;# 
   144  011A                     	;# 
   145  011A                     	;# 
   146  011A                     	;# 
   147  011B                     	;# 
   148  011B                     	;# 
   149  011B                     	;# 
   150  011B                     	;# 
   151  011B                     	;# 
   152  011C                     	;# 
   153  011C                     	;# 
   154  011C                     	;# 
   155  011D                     	;# 
   156  011D                     	;# 
   157  011D                     	;# 
   158  011E                     	;# 
   159  011E                     	;# 
   160  011E                     	;# 
   161  011F                     	;# 
   162  011F                     	;# 
   163  011F                     	;# 
   164  011F                     	;# 
   165  011F                     	;# 
   166  018C                     	;# 
   167  018D                     	;# 
   168  018E                     	;# 
   169  018F                     	;# 
   170  0190                     	;# 
   171  0191                     	;# 
   172  0192                     	;# 
   173  0196                     	;# 
   174  0197                     	;# 
   175  0198                     	;# 
   176  0199                     	;# 
   177  019A                     	;# 
   178  019B                     	;# 
   179  019C                     	;# 
   180  020C                     	;# 
   181  020C                     	;# 
   182  020D                     	;# 
   183  020E                     	;# 
   184  020F                     	;# 
   185  020F                     	;# 
   186  0210                     	;# 
   187  0210                     	;# 
   188  0211                     	;# 
   189  0211                     	;# 
   190  0212                     	;# 
   191  0212                     	;# 
   192  0213                     	;# 
   193  0214                     	;# 
   194  0215                     	;# 
   195  0215                     	;# 
   196  0216                     	;# 
   197  0216                     	;# 
   198  0217                     	;# 
   199  0217                     	;# 
   200  0218                     	;# 
   201  0218                     	;# 
   202  0219                     	;# 
   203  021A                     	;# 
   204  021B                     	;# 
   205  021B                     	;# 
   206  021C                     	;# 
   207  021C                     	;# 
   208  021D                     	;# 
   209  021D                     	;# 
   210  021E                     	;# 
   211  021F                     	;# 
   212  028C                     	;# 
   213  028C                     	;# 
   214  028D                     	;# 
   215  028D                     	;# 
   216  028E                     	;# 
   217  028F                     	;# 
   218  0290                     	;# 
   219  0290                     	;# 
   220  0291                     	;# 
   221  0292                     	;# 
   222  0292                     	;# 
   223  0293                     	;# 
   224  0293                     	;# 
   225  0294                     	;# 
   226  0295                     	;# 
   227  0296                     	;# 
   228  0296                     	;# 
   229  0297                     	;# 
   230  0298                     	;# 
   231  0298                     	;# 
   232  0299                     	;# 
   233  0299                     	;# 
   234  029A                     	;# 
   235  029B                     	;# 
   236  029C                     	;# 
   237  029C                     	;# 
   238  029D                     	;# 
   239  030C                     	;# 
   240  030C                     	;# 
   241  030D                     	;# 
   242  030E                     	;# 
   243  030F                     	;# 
   244  0310                     	;# 
   245  0310                     	;# 
   246  0311                     	;# 
   247  0312                     	;# 
   248  0313                     	;# 
   249  0314                     	;# 
   250  0314                     	;# 
   251  0315                     	;# 
   252  0316                     	;# 
   253  0317                     	;# 
   254  0318                     	;# 
   255  0318                     	;# 
   256  0319                     	;# 
   257  031A                     	;# 
   258  031B                     	;# 
   259  031C                     	;# 
   260  031C                     	;# 
   261  031D                     	;# 
   262  031E                     	;# 
   263  031F                     	;# 
   264  038C                     	;# 
   265  038C                     	;# 
   266  038D                     	;# 
   267  038E                     	;# 
   268  0390                     	;# 
   269  0390                     	;# 
   270  0391                     	;# 
   271  0392                     	;# 
   272  040C                     	;# 
   273  040D                     	;# 
   274  040E                     	;# 
   275  040F                     	;# 
   276  0410                     	;# 
   277  0411                     	;# 
   278  0416                     	;# 
   279  0416                     	;# 
   280  0417                     	;# 
   281  0418                     	;# 
   282  0418                     	;# 
   283  0419                     	;# 
   284  041A                     	;# 
   285  041A                     	;# 
   286  041B                     	;# 
   287  041C                     	;# 
   288  041C                     	;# 
   289  041D                     	;# 
   290  041E                     	;# 
   291  041F                     	;# 
   292  048C                     	;# 
   293  048C                     	;# 
   294  048D                     	;# 
   295  048E                     	;# 
   296  048F                     	;# 
   297  048F                     	;# 
   298  0490                     	;# 
   299  0491                     	;# 
   300  0492                     	;# 
   301  0492                     	;# 
   302  0493                     	;# 
   303  0494                     	;# 
   304  0495                     	;# 
   305  0495                     	;# 
   306  0496                     	;# 
   307  0497                     	;# 
   308  0498                     	;# 
   309  0499                     	;# 
   310  049A                     	;# 
   311  049B                     	;# 
   312  049C                     	;# 
   313  049D                     	;# 
   314  050C                     	;# 
   315  050C                     	;# 
   316  050D                     	;# 
   317  050E                     	;# 
   318  050F                     	;# 
   319  050F                     	;# 
   320  0510                     	;# 
   321  0511                     	;# 
   322  0512                     	;# 
   323  0512                     	;# 
   324  0513                     	;# 
   325  0514                     	;# 
   326  0515                     	;# 
   327  0515                     	;# 
   328  0516                     	;# 
   329  0517                     	;# 
   330  0518                     	;# 
   331  0519                     	;# 
   332  051A                     	;# 
   333  051B                     	;# 
   334  051C                     	;# 
   335  051D                     	;# 
   336  058C                     	;# 
   337  058C                     	;# 
   338  058D                     	;# 
   339  058E                     	;# 
   340  058F                     	;# 
   341  058F                     	;# 
   342  0590                     	;# 
   343  0591                     	;# 
   344  0592                     	;# 
   345  0593                     	;# 
   346  060C                     	;# 
   347  060D                     	;# 
   348  060E                     	;# 
   349  060F                     	;# 
   350  0610                     	;# 
   351  0611                     	;# 
   352  0612                     	;# 
   353  0613                     	;# 
   354  0614                     	;# 
   355  0616                     	;# 
   356  0617                     	;# 
   357  0618                     	;# 
   358  0619                     	;# 
   359  061A                     	;# 
   360  061B                     	;# 
   361  061C                     	;# 
   362  061D                     	;# 
   363  061E                     	;# 
   364  068C                     	;# 
   365  068D                     	;# 
   366  068E                     	;# 
   367  068F                     	;# 
   368  0690                     	;# 
   369  0691                     	;# 
   370  0692                     	;# 
   371  0693                     	;# 
   372  0694                     	;# 
   373  070C                     	;# 
   374  070D                     	;# 
   375  070E                     	;# 
   376  070F                     	;# 
   377  0710                     	;# 
   378  0711                     	;# 
   379  0712                     	;# 
   380  0713                     	;# 
   381  0714                     	;# 
   382  0716                     	;# 
   383  0717                     	;# 
   384  0718                     	;# 
   385  0719                     	;# 
   386  071A                     	;# 
   387  071B                     	;# 
   388  071C                     	;# 
   389  071D                     	;# 
   390  071E                     	;# 
   391  0796                     	;# 
   392  0797                     	;# 
   393  0798                     	;# 
   394  0799                     	;# 
   395  079A                     	;# 
   396  079B                     	;# 
   397  080C                     	;# 
   398  080D                     	;# 
   399  080E                     	;# 
   400  080F                     	;# 
   401  0810                     	;# 
   402  0811                     	;# 
   403  0812                     	;# 
   404  0813                     	;# 
   405  0814                     	;# 
   406  081A                     	;# 
   407  081B                     	;# 
   408  081C                     	;# 
   409  081D                     	;# 
   410  081E                     	;# 
   411  081F                     	;# 
   412  088C                     	;# 
   413  088D                     	;# 
   414  088E                     	;# 
   415  088F                     	;# 
   416  0890                     	;# 
   417  0891                     	;# 
   418  0892                     	;# 
   419  0893                     	;# 
   420  0895                     	;# 
   421  0896                     	;# 
   422  0897                     	;# 
   423  0898                     	;# 
   424  0899                     	;# 
   425  089A                     	;# 
   426  089B                     	;# 
   427  090C                     	;# 
   428  090E                     	;# 
   429  090F                     	;# 
   430  091F                     	;# 
   431  098F                     	;# 
   432  098F                     	;# 
   433  0990                     	;# 
   434  0991                     	;# 
   435  0992                     	;# 
   436  0993                     	;# 
   437  0994                     	;# 
   438  0995                     	;# 
   439  0996                     	;# 
   440  0997                     	;# 
   441  0E0F                     	;# 
   442  0E10                     	;# 
   443  0E11                     	;# 
   444  0E12                     	;# 
   445  0E13                     	;# 
   446  0E14                     	;# 
   447  0E15                     	;# 
   448  0E16                     	;# 
   449  0E17                     	;# 
   450  0E18                     	;# 
   451  0E19                     	;# 
   452  0E1A                     	;# 
   453  0E1B                     	;# 
   454  0E1C                     	;# 
   455  0E1D                     	;# 
   456  0E1E                     	;# 
   457  0E1F                     	;# 
   458  0E20                     	;# 
   459  0E21                     	;# 
   460  0E22                     	;# 
   461  0E23                     	;# 
   462  0E24                     	;# 
   463  0E25                     	;# 
   464  0E26                     	;# 
   465  0E27                     	;# 
   466  0E28                     	;# 
   467  0E29                     	;# 
   468  0E2A                     	;# 
   469  0E2B                     	;# 
   470  0E2C                     	;# 
   471  0E2D                     	;# 
   472  0E2E                     	;# 
   473  0E2F                     	;# 
   474  0E30                     	;# 
   475  0E31                     	;# 
   476  0E32                     	;# 
   477  0E33                     	;# 
   478  0E34                     	;# 
   479  0E35                     	;# 
   480  0E36                     	;# 
   481  0E37                     	;# 
   482  0E8F                     	;# 
   483  0E90                     	;# 
   484  0E91                     	;# 
   485  0E92                     	;# 
   486  0E93                     	;# 
   487  0E94                     	;# 
   488  0E95                     	;# 
   489  0E96                     	;# 
   490  0E97                     	;# 
   491  0E9C                     	;# 
   492  0E9D                     	;# 
   493  0E9E                     	;# 
   494  0EA1                     	;# 
   495  0EA2                     	;# 
   496  0EA3                     	;# 
   497  0EA4                     	;# 
   498  0EA5                     	;# 
   499  0EA9                     	;# 
   500  0EAA                     	;# 
   501  0EAB                     	;# 
   502  0EAC                     	;# 
   503  0EB1                     	;# 
   504  0EB2                     	;# 
   505  0EB3                     	;# 
   506  0EB8                     	;# 
   507  0EB9                     	;# 
   508  0EBA                     	;# 
   509  0EBB                     	;# 
   510  0EBC                     	;# 
   511  0EBD                     	;# 
   512  0EBE                     	;# 
   513  0EC3                     	;# 
   514  0EC5                     	;# 
   515  0EC6                     	;# 
   516  0EC7                     	;# 
   517  0EC8                     	;# 
   518  0EC9                     	;# 
   519  0ECA                     	;# 
   520  0ECB                     	;# 
   521  0ECC                     	;# 
   522  0F10                     	;# 
   523  0F11                     	;# 
   524  0F12                     	;# 
   525  0F13                     	;# 
   526  0F14                     	;# 
   527  0F15                     	;# 
   528  0F16                     	;# 
   529  0F17                     	;# 
   530  0F18                     	;# 
   531  0F19                     	;# 
   532  0F1A                     	;# 
   533  0F1B                     	;# 
   534  0F1C                     	;# 
   535  0F1D                     	;# 
   536  0F1E                     	;# 
   537  0F1F                     	;# 
   538  0F20                     	;# 
   539  0F21                     	;# 
   540  0F22                     	;# 
   541  0F23                     	;# 
   542  0F24                     	;# 
   543  0F25                     	;# 
   544  0F26                     	;# 
   545  0F27                     	;# 
   546  0F38                     	;# 
   547  0F39                     	;# 
   548  0F3A                     	;# 
   549  0F3B                     	;# 
   550  0F3C                     	;# 
   551  0F3D                     	;# 
   552  0F3E                     	;# 
   553  0F3F                     	;# 
   554  0F40                     	;# 
   555  0F41                     	;# 
   556  0F43                     	;# 
   557  0F44                     	;# 
   558  0F45                     	;# 
   559  0F46                     	;# 
   560  0F47                     	;# 
   561  0F48                     	;# 
   562  0F49                     	;# 
   563  0F4A                     	;# 
   564  0F4B                     	;# 
   565  0F4C                     	;# 
   566  0F4E                     	;# 
   567  0F4F                     	;# 
   568  0F50                     	;# 
   569  0F51                     	;# 
   570  0F52                     	;# 
   571  0F53                     	;# 
   572  0F54                     	;# 
   573  0F55                     	;# 
   574  0F56                     	;# 
   575  0F57                     	;# 
   576  0F65                     	;# 
   577  0F68                     	;# 
   578  0F69                     	;# 
   579  0F6A                     	;# 
   580  0F6B                     	;# 
   581  0FE4                     	;# 
   582  0FE5                     	;# 
   583  0FE6                     	;# 
   584  0FE7                     	;# 
   585  0FE8                     	;# 
   586  0FE9                     	;# 
   587  0FEA                     	;# 
   588  0FEB                     	;# 
   589  0FED                     	;# 
   590  0FEE                     	;# 
   591  0FEF                     	;# 
   592  0000                     	;# 
   593  0001                     	;# 
   594  0002                     	;# 
   595  0003                     	;# 
   596  0004                     	;# 
   597  0005                     	;# 
   598  0006                     	;# 
   599  0007                     	;# 
   600  0008                     	;# 
   601  0009                     	;# 
   602  000A                     	;# 
   603  000B                     	;# 
   604  000C                     	;# 
   605  000D                     	;# 
   606  000E                     	;# 
   607  0010                     	;# 
   608  0011                     	;# 
   609  0012                     	;# 
   610  0013                     	;# 
   611  0016                     	;# 
   612  0017                     	;# 
   613  0018                     	;# 
   614  001C                     	;# 
   615  001C                     	;# 
   616  001D                     	;# 
   617  001D                     	;# 
   618  001E                     	;# 
   619  001F                     	;# 
   620  008C                     	;# 
   621  008C                     	;# 
   622  008D                     	;# 
   623  008E                     	;# 
   624  008E                     	;# 
   625  008F                     	;# 
   626  0090                     	;# 
   627  0090                     	;# 
   628  0091                     	;# 
   629  0093                     	;# 
   630  0094                     	;# 
   631  0095                     	;# 
   632  0096                     	;# 
   633  0097                     	;# 
   634  0098                     	;# 
   635  0099                     	;# 
   636  009A                     	;# 
   637  009B                     	;# 
   638  009C                     	;# 
   639  009D                     	;# 
   640  009E                     	;# 
   641  010C                     	;# 
   642  010D                     	;# 
   643  010E                     	;# 
   644  010E                     	;# 
   645  010F                     	;# 
   646  0110                     	;# 
   647  0110                     	;# 
   648  0111                     	;# 
   649  0112                     	;# 
   650  0112                     	;# 
   651  0113                     	;# 
   652  0114                     	;# 
   653  0114                     	;# 
   654  0115                     	;# 
   655  0116                     	;# 
   656  0116                     	;# 
   657  0117                     	;# 
   658  0119                     	;# 
   659  0119                     	;# 
   660  0119                     	;# 
   661  011A                     	;# 
   662  011A                     	;# 
   663  011A                     	;# 
   664  011B                     	;# 
   665  011B                     	;# 
   666  011B                     	;# 
   667  011B                     	;# 
   668  011B                     	;# 
   669  011C                     	;# 
   670  011C                     	;# 
   671  011C                     	;# 
   672  011D                     	;# 
   673  011D                     	;# 
   674  011D                     	;# 
   675  011E                     	;# 
   676  011E                     	;# 
   677  011E                     	;# 
   678  011F                     	;# 
   679  011F                     	;# 
   680  011F                     	;# 
   681  011F                     	;# 
   682  011F                     	;# 
   683  018C                     	;# 
   684  018D                     	;# 
   685  018E                     	;# 
   686  018F                     	;# 
   687  0190                     	;# 
   688  0191                     	;# 
   689  0192                     	;# 
   690  0196                     	;# 
   691  0197                     	;# 
   692  0198                     	;# 
   693  0199                     	;# 
   694  019A                     	;# 
   695  019B                     	;# 
   696  019C                     	;# 
   697  020C                     	;# 
   698  020C                     	;# 
   699  020D                     	;# 
   700  020E                     	;# 
   701  020F                     	;# 
   702  020F                     	;# 
   703  0210                     	;# 
   704  0210                     	;# 
   705  0211                     	;# 
   706  0211                     	;# 
   707  0212                     	;# 
   708  0212                     	;# 
   709  0213                     	;# 
   710  0214                     	;# 
   711  0215                     	;# 
   712  0215                     	;# 
   713  0216                     	;# 
   714  0216                     	;# 
   715  0217                     	;# 
   716  0217                     	;# 
   717  0218                     	;# 
   718  0218                     	;# 
   719  0219                     	;# 
   720  021A                     	;# 
   721  021B                     	;# 
   722  021B                     	;# 
   723  021C                     	;# 
   724  021C                     	;# 
   725  021D                     	;# 
   726  021D                     	;# 
   727  021E                     	;# 
   728  021F                     	;# 
   729  028C                     	;# 
   730  028C                     	;# 
   731  028D                     	;# 
   732  028D                     	;# 
   733  028E                     	;# 
   734  028F                     	;# 
   735  0290                     	;# 
   736  0290                     	;# 
   737  0291                     	;# 
   738  0292                     	;# 
   739  0292                     	;# 
   740  0293                     	;# 
   741  0293                     	;# 
   742  0294                     	;# 
   743  0295                     	;# 
   744  0296                     	;# 
   745  0296                     	;# 
   746  0297                     	;# 
   747  0298                     	;# 
   748  0298                     	;# 
   749  0299                     	;# 
   750  0299                     	;# 
   751  029A                     	;# 
   752  029B                     	;# 
   753  029C                     	;# 
   754  029C                     	;# 
   755  029D                     	;# 
   756  030C                     	;# 
   757  030C                     	;# 
   758  030D                     	;# 
   759  030E                     	;# 
   760  030F                     	;# 
   761  0310                     	;# 
   762  0310                     	;# 
   763  0311                     	;# 
   764  0312                     	;# 
   765  0313                     	;# 
   766  0314                     	;# 
   767  0314                     	;# 
   768  0315                     	;# 
   769  0316                     	;# 
   770  0317                     	;# 
   771  0318                     	;# 
   772  0318                     	;# 
   773  0319                     	;# 
   774  031A                     	;# 
   775  031B                     	;# 
   776  031C                     	;# 
   777  031C                     	;# 
   778  031D                     	;# 
   779  031E                     	;# 
   780  031F                     	;# 
   781  038C                     	;# 
   782  038C                     	;# 
   783  038D                     	;# 
   784  038E                     	;# 
   785  0390                     	;# 
   786  0390                     	;# 
   787  0391                     	;# 
   788  0392                     	;# 
   789  040C                     	;# 
   790  040D                     	;# 
   791  040E                     	;# 
   792  040F                     	;# 
   793  0410                     	;# 
   794  0411                     	;# 
   795  0416                     	;# 
   796  0416                     	;# 
   797  0417                     	;# 
   798  0418                     	;# 
   799  0418                     	;# 
   800  0419                     	;# 
   801  041A                     	;# 
   802  041A                     	;# 
   803  041B                     	;# 
   804  041C                     	;# 
   805  041C                     	;# 
   806  041D                     	;# 
   807  041E                     	;# 
   808  041F                     	;# 
   809  048C                     	;# 
   810  048C                     	;# 
   811  048D                     	;# 
   812  048E                     	;# 
   813  048F                     	;# 
   814  048F                     	;# 
   815  0490                     	;# 
   816  0491                     	;# 
   817  0492                     	;# 
   818  0492                     	;# 
   819  0493                     	;# 
   820  0494                     	;# 
   821  0495                     	;# 
   822  0495                     	;# 
   823  0496                     	;# 
   824  0497                     	;# 
   825  0498                     	;# 
   826  0499                     	;# 
   827  049A                     	;# 
   828  049B                     	;# 
   829  049C                     	;# 
   830  049D                     	;# 
   831  050C                     	;# 
   832  050C                     	;# 
   833  050D                     	;# 
   834  050E                     	;# 
   835  050F                     	;# 
   836  050F                     	;# 
   837  0510                     	;# 
   838  0511                     	;# 
   839  0512                     	;# 
   840  0512                     	;# 
   841  0513                     	;# 
   842  0514                     	;# 
   843  0515                     	;# 
   844  0515                     	;# 
   845  0516                     	;# 
   846  0517                     	;# 
   847  0518                     	;# 
   848  0519                     	;# 
   849  051A                     	;# 
   850  051B                     	;# 
   851  051C                     	;# 
   852  051D                     	;# 
   853  058C                     	;# 
   854  058C                     	;# 
   855  058D                     	;# 
   856  058E                     	;# 
   857  058F                     	;# 
   858  058F                     	;# 
   859  0590                     	;# 
   860  0591                     	;# 
   861  0592                     	;# 
   862  0593                     	;# 
   863  060C                     	;# 
   864  060D                     	;# 
   865  060E                     	;# 
   866  060F                     	;# 
   867  0610                     	;# 
   868  0611                     	;# 
   869  0612                     	;# 
   870  0613                     	;# 
   871  0614                     	;# 
   872  0616                     	;# 
   873  0617                     	;# 
   874  0618                     	;# 
   875  0619                     	;# 
   876  061A                     	;# 
   877  061B                     	;# 
   878  061C                     	;# 
   879  061D                     	;# 
   880  061E                     	;# 
   881  068C                     	;# 
   882  068D                     	;# 
   883  068E                     	;# 
   884  068F                     	;# 
   885  0690                     	;# 
   886  0691                     	;# 
   887  0692                     	;# 
   888  0693                     	;# 
   889  0694                     	;# 
   890  070C                     	;# 
   891  070D                     	;# 
   892  070E                     	;# 
   893  070F                     	;# 
   894  0710                     	;# 
   895  0711                     	;# 
   896  0712                     	;# 
   897  0713                     	;# 
   898  0714                     	;# 
   899  0716                     	;# 
   900  0717                     	;# 
   901  0718                     	;# 
   902  0719                     	;# 
   903  071A                     	;# 
   904  071B                     	;# 
   905  071C                     	;# 
   906  071D                     	;# 
   907  071E                     	;# 
   908  0796                     	;# 
   909  0797                     	;# 
   910  0798                     	;# 
   911  0799                     	;# 
   912  079A                     	;# 
   913  079B                     	;# 
   914  080C                     	;# 
   915  080D                     	;# 
   916  080E                     	;# 
   917  080F                     	;# 
   918  0810                     	;# 
   919  0811                     	;# 
   920  0812                     	;# 
   921  0813                     	;# 
   922  0814                     	;# 
   923  081A                     	;# 
   924  081B                     	;# 
   925  081C                     	;# 
   926  081D                     	;# 
   927  081E                     	;# 
   928  081F                     	;# 
   929  088C                     	;# 
   930  088D                     	;# 
   931  088E                     	;# 
   932  088F                     	;# 
   933  0890                     	;# 
   934  0891                     	;# 
   935  0892                     	;# 
   936  0893                     	;# 
   937  0895                     	;# 
   938  0896                     	;# 
   939  0897                     	;# 
   940  0898                     	;# 
   941  0899                     	;# 
   942  089A                     	;# 
   943  089B                     	;# 
   944  090C                     	;# 
   945  090E                     	;# 
   946  090F                     	;# 
   947  091F                     	;# 
   948  098F                     	;# 
   949  098F                     	;# 
   950  0990                     	;# 
   951  0991                     	;# 
   952  0992                     	;# 
   953  0993                     	;# 
   954  0994                     	;# 
   955  0995                     	;# 
   956  0996                     	;# 
   957  0997                     	;# 
   958  0E0F                     	;# 
   959  0E10                     	;# 
   960  0E11                     	;# 
   961  0E12                     	;# 
   962  0E13                     	;# 
   963  0E14                     	;# 
   964  0E15                     	;# 
   965  0E16                     	;# 
   966  0E17                     	;# 
   967  0E18                     	;# 
   968  0E19                     	;# 
   969  0E1A                     	;# 
   970  0E1B                     	;# 
   971  0E1C                     	;# 
   972  0E1D                     	;# 
   973  0E1E                     	;# 
   974  0E1F                     	;# 
   975  0E20                     	;# 
   976  0E21                     	;# 
   977  0E22                     	;# 
   978  0E23                     	;# 
   979  0E24                     	;# 
   980  0E25                     	;# 
   981  0E26                     	;# 
   982  0E27                     	;# 
   983  0E28                     	;# 
   984  0E29                     	;# 
   985  0E2A                     	;# 
   986  0E2B                     	;# 
   987  0E2C                     	;# 
   988  0E2D                     	;# 
   989  0E2E                     	;# 
   990  0E2F                     	;# 
   991  0E30                     	;# 
   992  0E31                     	;# 
   993  0E32                     	;# 
   994  0E33                     	;# 
   995  0E34                     	;# 
   996  0E35                     	;# 
   997  0E36                     	;# 
   998  0E37                     	;# 
   999  0E8F                     	;# 
  1000  0E90                     	;# 
  1001  0E91                     	;# 
  1002  0E92                     	;# 
  1003  0E93                     	;# 
  1004  0E94                     	;# 
  1005  0E95                     	;# 
  1006  0E96                     	;# 
  1007  0E97                     	;# 
  1008  0E9C                     	;# 
  1009  0E9D                     	;# 
  1010  0E9E                     	;# 
  1011  0EA1                     	;# 
  1012  0EA2                     	;# 
  1013  0EA3                     	;# 
  1014  0EA4                     	;# 
  1015  0EA5                     	;# 
  1016  0EA9                     	;# 
  1017  0EAA                     	;# 
  1018  0EAB                     	;# 
  1019  0EAC                     	;# 
  1020  0EB1                     	;# 
  1021  0EB2                     	;# 
  1022  0EB3                     	;# 
  1023  0EB8                     	;# 
  1024  0EB9                     	;# 
  1025  0EBA                     	;# 
  1026  0EBB                     	;# 
  1027  0EBC                     	;# 
  1028  0EBD                     	;# 
  1029  0EBE                     	;# 
  1030  0EC3                     	;# 
  1031  0EC5                     	;# 
  1032  0EC6                     	;# 
  1033  0EC7                     	;# 
  1034  0EC8                     	;# 
  1035  0EC9                     	;# 
  1036  0ECA                     	;# 
  1037  0ECB                     	;# 
  1038  0ECC                     	;# 
  1039  0F10                     	;# 
  1040  0F11                     	;# 
  1041  0F12                     	;# 
  1042  0F13                     	;# 
  1043  0F14                     	;# 
  1044  0F15                     	;# 
  1045  0F16                     	;# 
  1046  0F17                     	;# 
  1047  0F18                     	;# 
  1048  0F19                     	;# 
  1049  0F1A                     	;# 
  1050  0F1B                     	;# 
  1051  0F1C                     	;# 
  1052  0F1D                     	;# 
  1053  0F1E                     	;# 
  1054  0F1F                     	;# 
  1055  0F20                     	;# 
  1056  0F21                     	;# 
  1057  0F22                     	;# 
  1058  0F23                     	;# 
  1059  0F24                     	;# 
  1060  0F25                     	;# 
  1061  0F26                     	;# 
  1062  0F27                     	;# 
  1063  0F38                     	;# 
  1064  0F39                     	;# 
  1065  0F3A                     	;# 
  1066  0F3B                     	;# 
  1067  0F3C                     	;# 
  1068  0F3D                     	;# 
  1069  0F3E                     	;# 
  1070  0F3F                     	;# 
  1071  0F40                     	;# 
  1072  0F41                     	;# 
  1073  0F43                     	;# 
  1074  0F44                     	;# 
  1075  0F45                     	;# 
  1076  0F46                     	;# 
  1077  0F47                     	;# 
  1078  0F48                     	;# 
  1079  0F49                     	;# 
  1080  0F4A                     	;# 
  1081  0F4B                     	;# 
  1082  0F4C                     	;# 
  1083  0F4E                     	;# 
  1084  0F4F                     	;# 
  1085  0F50                     	;# 
  1086  0F51                     	;# 
  1087  0F52                     	;# 
  1088  0F53                     	;# 
  1089  0F54                     	;# 
  1090  0F55                     	;# 
  1091  0F56                     	;# 
  1092  0F57                     	;# 
  1093  0F65                     	;# 
  1094  0F68                     	;# 
  1095  0F69                     	;# 
  1096  0F6A                     	;# 
  1097  0F6B                     	;# 
  1098  0FE4                     	;# 
  1099  0FE5                     	;# 
  1100  0FE6                     	;# 
  1101  0FE7                     	;# 
  1102  0FE8                     	;# 
  1103  0FE9                     	;# 
  1104  0FEA                     	;# 
  1105  0FEB                     	;# 
  1106  0FED                     	;# 
  1107  0FEE                     	;# 
  1108  0FEF                     	;# 
  1109  0000                     	;# 
  1110  0001                     	;# 
  1111  0002                     	;# 
  1112  0003                     	;# 
  1113  0004                     	;# 
  1114  0005                     	;# 
  1115  0006                     	;# 
  1116  0007                     	;# 
  1117  0008                     	;# 
  1118  0009                     	;# 
  1119  000A                     	;# 
  1120  000B                     	;# 
  1121  000C                     	;# 
  1122  000D                     	;# 
  1123  000E                     	;# 
  1124  0010                     	;# 
  1125  0011                     	;# 
  1126  0012                     	;# 
  1127  0013                     	;# 
  1128  0016                     	;# 
  1129  0017                     	;# 
  1130  0018                     	;# 
  1131  001C                     	;# 
  1132  001C                     	;# 
  1133  001D                     	;# 
  1134  001D                     	;# 
  1135  001E                     	;# 
  1136  001F                     	;# 
  1137  008C                     	;# 
  1138  008C                     	;# 
  1139  008D                     	;# 
  1140  008E                     	;# 
  1141  008E                     	;# 
  1142  008F                     	;# 
  1143  0090                     	;# 
  1144  0090                     	;# 
  1145  0091                     	;# 
  1146  0093                     	;# 
  1147  0094                     	;# 
  1148  0095                     	;# 
  1149  0096                     	;# 
  1150  0097                     	;# 
  1151  0098                     	;# 
  1152  0099                     	;# 
  1153  009A                     	;# 
  1154  009B                     	;# 
  1155  009C                     	;# 
  1156  009D                     	;# 
  1157  009E                     	;# 
  1158  010C                     	;# 
  1159  010D                     	;# 
  1160  010E                     	;# 
  1161  010E                     	;# 
  1162  010F                     	;# 
  1163  0110                     	;# 
  1164  0110                     	;# 
  1165  0111                     	;# 
  1166  0112                     	;# 
  1167  0112                     	;# 
  1168  0113                     	;# 
  1169  0114                     	;# 
  1170  0114                     	;# 
  1171  0115                     	;# 
  1172  0116                     	;# 
  1173  0116                     	;# 
  1174  0117                     	;# 
  1175  0119                     	;# 
  1176  0119                     	;# 
  1177  0119                     	;# 
  1178  011A                     	;# 
  1179  011A                     	;# 
  1180  011A                     	;# 
  1181  011B                     	;# 
  1182  011B                     	;# 
  1183  011B                     	;# 
  1184  011B                     	;# 
  1185  011B                     	;# 
  1186  011C                     	;# 
  1187  011C                     	;# 
  1188  011C                     	;# 
  1189  011D                     	;# 
  1190  011D                     	;# 
  1191  011D                     	;# 
  1192  011E                     	;# 
  1193  011E                     	;# 
  1194  011E                     	;# 
  1195  011F                     	;# 
  1196  011F                     	;# 
  1197  011F                     	;# 
  1198  011F                     	;# 
  1199  011F                     	;# 
  1200  018C                     	;# 
  1201  018D                     	;# 
  1202  018E                     	;# 
  1203  018F                     	;# 
  1204  0190                     	;# 
  1205  0191                     	;# 
  1206  0192                     	;# 
  1207  0196                     	;# 
  1208  0197                     	;# 
  1209  0198                     	;# 
  1210  0199                     	;# 
  1211  019A                     	;# 
  1212  019B                     	;# 
  1213  019C                     	;# 
  1214  020C                     	;# 
  1215  020C                     	;# 
  1216  020D                     	;# 
  1217  020E                     	;# 
  1218  020F                     	;# 
  1219  020F                     	;# 
  1220  0210                     	;# 
  1221  0210                     	;# 
  1222  0211                     	;# 
  1223  0211                     	;# 
  1224  0212                     	;# 
  1225  0212                     	;# 
  1226  0213                     	;# 
  1227  0214                     	;# 
  1228  0215                     	;# 
  1229  0215                     	;# 
  1230  0216                     	;# 
  1231  0216                     	;# 
  1232  0217                     	;# 
  1233  0217                     	;# 
  1234  0218                     	;# 
  1235  0218                     	;# 
  1236  0219                     	;# 
  1237  021A                     	;# 
  1238  021B                     	;# 
  1239  021B                     	;# 
  1240  021C                     	;# 
  1241  021C                     	;# 
  1242  021D                     	;# 
  1243  021D                     	;# 
  1244  021E                     	;# 
  1245  021F                     	;# 
  1246  028C                     	;# 
  1247  028C                     	;# 
  1248  028D                     	;# 
  1249  028D                     	;# 
  1250  028E                     	;# 
  1251  028F                     	;# 
  1252  0290                     	;# 
  1253  0290                     	;# 
  1254  0291                     	;# 
  1255  0292                     	;# 
  1256  0292                     	;# 
  1257  0293                     	;# 
  1258  0293                     	;# 
  1259  0294                     	;# 
  1260  0295                     	;# 
  1261  0296                     	;# 
  1262  0296                     	;# 
  1263  0297                     	;# 
  1264  0298                     	;# 
  1265  0298                     	;# 
  1266  0299                     	;# 
  1267  0299                     	;# 
  1268  029A                     	;# 
  1269  029B                     	;# 
  1270  029C                     	;# 
  1271  029C                     	;# 
  1272  029D                     	;# 
  1273  030C                     	;# 
  1274  030C                     	;# 
  1275  030D                     	;# 
  1276  030E                     	;# 
  1277  030F                     	;# 
  1278  0310                     	;# 
  1279  0310                     	;# 
  1280  0311                     	;# 
  1281  0312                     	;# 
  1282  0313                     	;# 
  1283  0314                     	;# 
  1284  0314                     	;# 
  1285  0315                     	;# 
  1286  0316                     	;# 
  1287  0317                     	;# 
  1288  0318                     	;# 
  1289  0318                     	;# 
  1290  0319                     	;# 
  1291  031A                     	;# 
  1292  031B                     	;# 
  1293  031C                     	;# 
  1294  031C                     	;# 
  1295  031D                     	;# 
  1296  031E                     	;# 
  1297  031F                     	;# 
  1298  038C                     	;# 
  1299  038C                     	;# 
  1300  038D                     	;# 
  1301  038E                     	;# 
  1302  0390                     	;# 
  1303  0390                     	;# 
  1304  0391                     	;# 
  1305  0392                     	;# 
  1306  040C                     	;# 
  1307  040D                     	;# 
  1308  040E                     	;# 
  1309  040F                     	;# 
  1310  0410                     	;# 
  1311  0411                     	;# 
  1312  0416                     	;# 
  1313  0416                     	;# 
  1314  0417                     	;# 
  1315  0418                     	;# 
  1316  0418                     	;# 
  1317  0419                     	;# 
  1318  041A                     	;# 
  1319  041A                     	;# 
  1320  041B                     	;# 
  1321  041C                     	;# 
  1322  041C                     	;# 
  1323  041D                     	;# 
  1324  041E                     	;# 
  1325  041F                     	;# 
  1326  048C                     	;# 
  1327  048C                     	;# 
  1328  048D                     	;# 
  1329  048E                     	;# 
  1330  048F                     	;# 
  1331  048F                     	;# 
  1332  0490                     	;# 
  1333  0491                     	;# 
  1334  0492                     	;# 
  1335  0492                     	;# 
  1336  0493                     	;# 
  1337  0494                     	;# 
  1338  0495                     	;# 
  1339  0495                     	;# 
  1340  0496                     	;# 
  1341  0497                     	;# 
  1342  0498                     	;# 
  1343  0499                     	;# 
  1344  049A                     	;# 
  1345  049B                     	;# 
  1346  049C                     	;# 
  1347  049D                     	;# 
  1348  050C                     	;# 
  1349  050C                     	;# 
  1350  050D                     	;# 
  1351  050E                     	;# 
  1352  050F                     	;# 
  1353  050F                     	;# 
  1354  0510                     	;# 
  1355  0511                     	;# 
  1356  0512                     	;# 
  1357  0512                     	;# 
  1358  0513                     	;# 
  1359  0514                     	;# 
  1360  0515                     	;# 
  1361  0515                     	;# 
  1362  0516                     	;# 
  1363  0517                     	;# 
  1364  0518                     	;# 
  1365  0519                     	;# 
  1366  051A                     	;# 
  1367  051B                     	;# 
  1368  051C                     	;# 
  1369  051D                     	;# 
  1370  058C                     	;# 
  1371  058C                     	;# 
  1372  058D                     	;# 
  1373  058E                     	;# 
  1374  058F                     	;# 
  1375  058F                     	;# 
  1376  0590                     	;# 
  1377  0591                     	;# 
  1378  0592                     	;# 
  1379  0593                     	;# 
  1380  060C                     	;# 
  1381  060D                     	;# 
  1382  060E                     	;# 
  1383  060F                     	;# 
  1384  0610                     	;# 
  1385  0611                     	;# 
  1386  0612                     	;# 
  1387  0613                     	;# 
  1388  0614                     	;# 
  1389  0616                     	;# 
  1390  0617                     	;# 
  1391  0618                     	;# 
  1392  0619                     	;# 
  1393  061A                     	;# 
  1394  061B                     	;# 
  1395  061C                     	;# 
  1396  061D                     	;# 
  1397  061E                     	;# 
  1398  068C                     	;# 
  1399  068D                     	;# 
  1400  068E                     	;# 
  1401  068F                     	;# 
  1402  0690                     	;# 
  1403  0691                     	;# 
  1404  0692                     	;# 
  1405  0693                     	;# 
  1406  0694                     	;# 
  1407  070C                     	;# 
  1408  070D                     	;# 
  1409  070E                     	;# 
  1410  070F                     	;# 
  1411  0710                     	;# 
  1412  0711                     	;# 
  1413  0712                     	;# 
  1414  0713                     	;# 
  1415  0714                     	;# 
  1416  0716                     	;# 
  1417  0717                     	;# 
  1418  0718                     	;# 
  1419  0719                     	;# 
  1420  071A                     	;# 
  1421  071B                     	;# 
  1422  071C                     	;# 
  1423  071D                     	;# 
  1424  071E                     	;# 
  1425  0796                     	;# 
  1426  0797                     	;# 
  1427  0798                     	;# 
  1428  0799                     	;# 
  1429  079A                     	;# 
  1430  079B                     	;# 
  1431  080C                     	;# 
  1432  080D                     	;# 
  1433  080E                     	;# 
  1434  080F                     	;# 
  1435  0810                     	;# 
  1436  0811                     	;# 
  1437  0812                     	;# 
  1438  0813                     	;# 
  1439  0814                     	;# 
  1440  081A                     	;# 
  1441  081B                     	;# 
  1442  081C                     	;# 
  1443  081D                     	;# 
  1444  081E                     	;# 
  1445  081F                     	;# 
  1446  088C                     	;# 
  1447  088D                     	;# 
  1448  088E                     	;# 
  1449  088F                     	;# 
  1450  0890                     	;# 
  1451  0891                     	;# 
  1452  0892                     	;# 
  1453  0893                     	;# 
  1454  0895                     	;# 
  1455  0896                     	;# 
  1456  0897                     	;# 
  1457  0898                     	;# 
  1458  0899                     	;# 
  1459  089A                     	;# 
  1460  089B                     	;# 
  1461  090C                     	;# 
  1462  090E                     	;# 
  1463  090F                     	;# 
  1464  091F                     	;# 
  1465  098F                     	;# 
  1466  098F                     	;# 
  1467  0990                     	;# 
  1468  0991                     	;# 
  1469  0992                     	;# 
  1470  0993                     	;# 
  1471  0994                     	;# 
  1472  0995                     	;# 
  1473  0996                     	;# 
  1474  0997                     	;# 
  1475  0E0F                     	;# 
  1476  0E10                     	;# 
  1477  0E11                     	;# 
  1478  0E12                     	;# 
  1479  0E13                     	;# 
  1480  0E14                     	;# 
  1481  0E15                     	;# 
  1482  0E16                     	;# 
  1483  0E17                     	;# 
  1484  0E18                     	;# 
  1485  0E19                     	;# 
  1486  0E1A                     	;# 
  1487  0E1B                     	;# 
  1488  0E1C                     	;# 
  1489  0E1D                     	;# 
  1490  0E1E                     	;# 
  1491  0E1F                     	;# 
  1492  0E20                     	;# 
  1493  0E21                     	;# 
  1494  0E22                     	;# 
  1495  0E23                     	;# 
  1496  0E24                     	;# 
  1497  0E25                     	;# 
  1498  0E26                     	;# 
  1499  0E27                     	;# 
  1500  0E28                     	;# 
  1501  0E29                     	;# 
  1502  0E2A                     	;# 
  1503  0E2B                     	;# 
  1504  0E2C                     	;# 
  1505  0E2D                     	;# 
  1506  0E2E                     	;# 
  1507  0E2F                     	;# 
  1508  0E30                     	;# 
  1509  0E31                     	;# 
  1510  0E32                     	;# 
  1511  0E33                     	;# 
  1512  0E34                     	;# 
  1513  0E35                     	;# 
  1514  0E36                     	;# 
  1515  0E37                     	;# 
  1516  0E8F                     	;# 
  1517  0E90                     	;# 
  1518  0E91                     	;# 
  1519  0E92                     	;# 
  1520  0E93                     	;# 
  1521  0E94                     	;# 
  1522  0E95                     	;# 
  1523  0E96                     	;# 
  1524  0E97                     	;# 
  1525  0E9C                     	;# 
  1526  0E9D                     	;# 
  1527  0E9E                     	;# 
  1528  0EA1                     	;# 
  1529  0EA2                     	;# 
  1530  0EA3                     	;# 
  1531  0EA4                     	;# 
  1532  0EA5                     	;# 
  1533  0EA9                     	;# 
  1534  0EAA                     	;# 
  1535  0EAB                     	;# 
  1536  0EAC                     	;# 
  1537  0EB1                     	;# 
  1538  0EB2                     	;# 
  1539  0EB3                     	;# 
  1540  0EB8                     	;# 
  1541  0EB9                     	;# 
  1542  0EBA                     	;# 
  1543  0EBB                     	;# 
  1544  0EBC                     	;# 
  1545  0EBD                     	;# 
  1546  0EBE                     	;# 
  1547  0EC3                     	;# 
  1548  0EC5                     	;# 
  1549  0EC6                     	;# 
  1550  0EC7                     	;# 
  1551  0EC8                     	;# 
  1552  0EC9                     	;# 
  1553  0ECA                     	;# 
  1554  0ECB                     	;# 
  1555  0ECC                     	;# 
  1556  0F10                     	;# 
  1557  0F11                     	;# 
  1558  0F12                     	;# 
  1559  0F13                     	;# 
  1560  0F14                     	;# 
  1561  0F15                     	;# 
  1562  0F16                     	;# 
  1563  0F17                     	;# 
  1564  0F18                     	;# 
  1565  0F19                     	;# 
  1566  0F1A                     	;# 
  1567  0F1B                     	;# 
  1568  0F1C                     	;# 
  1569  0F1D                     	;# 
  1570  0F1E                     	;# 
  1571  0F1F                     	;# 
  1572  0F20                     	;# 
  1573  0F21                     	;# 
  1574  0F22                     	;# 
  1575  0F23                     	;# 
  1576  0F24                     	;# 
  1577  0F25                     	;# 
  1578  0F26                     	;# 
  1579  0F27                     	;# 
  1580  0F38                     	;# 
  1581  0F39                     	;# 
  1582  0F3A                     	;# 
  1583  0F3B                     	;# 
  1584  0F3C                     	;# 
  1585  0F3D                     	;# 
  1586  0F3E                     	;# 
  1587  0F3F                     	;# 
  1588  0F40                     	;# 
  1589  0F41                     	;# 
  1590  0F43                     	;# 
  1591  0F44                     	;# 
  1592  0F45                     	;# 
  1593  0F46                     	;# 
  1594  0F47                     	;# 
  1595  0F48                     	;# 
  1596  0F49                     	;# 
  1597  0F4A                     	;# 
  1598  0F4B                     	;# 
  1599  0F4C                     	;# 
  1600  0F4E                     	;# 
  1601  0F4F                     	;# 
  1602  0F50                     	;# 
  1603  0F51                     	;# 
  1604  0F52                     	;# 
  1605  0F53                     	;# 
  1606  0F54                     	;# 
  1607  0F55                     	;# 
  1608  0F56                     	;# 
  1609  0F57                     	;# 
  1610  0F65                     	;# 
  1611  0F68                     	;# 
  1612  0F69                     	;# 
  1613  0F6A                     	;# 
  1614  0F6B                     	;# 
  1615  0FE4                     	;# 
  1616  0FE5                     	;# 
  1617  0FE6                     	;# 
  1618  0FE7                     	;# 
  1619  0FE8                     	;# 
  1620  0FE9                     	;# 
  1621  0FEA                     	;# 
  1622  0FEB                     	;# 
  1623  0FED                     	;# 
  1624  0FEE                     	;# 
  1625  0FEF                     	;# 
  1626  0000                     	;# 
  1627  0001                     	;# 
  1628  0002                     	;# 
  1629  0003                     	;# 
  1630  0004                     	;# 
  1631  0005                     	;# 
  1632  0006                     	;# 
  1633  0007                     	;# 
  1634  0008                     	;# 
  1635  0009                     	;# 
  1636  000A                     	;# 
  1637  000B                     	;# 
  1638  000C                     	;# 
  1639  000D                     	;# 
  1640  000E                     	;# 
  1641  0010                     	;# 
  1642  0011                     	;# 
  1643  0012                     	;# 
  1644  0013                     	;# 
  1645  0016                     	;# 
  1646  0017                     	;# 
  1647  0018                     	;# 
  1648  001C                     	;# 
  1649  001C                     	;# 
  1650  001D                     	;# 
  1651  001D                     	;# 
  1652  001E                     	;# 
  1653  001F                     	;# 
  1654  008C                     	;# 
  1655  008C                     	;# 
  1656  008D                     	;# 
  1657  008E                     	;# 
  1658  008E                     	;# 
  1659  008F                     	;# 
  1660  0090                     	;# 
  1661  0090                     	;# 
  1662  0091                     	;# 
  1663  0093                     	;# 
  1664  0094                     	;# 
  1665  0095                     	;# 
  1666  0096                     	;# 
  1667  0097                     	;# 
  1668  0098                     	;# 
  1669  0099                     	;# 
  1670  009A                     	;# 
  1671  009B                     	;# 
  1672  009C                     	;# 
  1673  009D                     	;# 
  1674  009E                     	;# 
  1675  010C                     	;# 
  1676  010D                     	;# 
  1677  010E                     	;# 
  1678  010E                     	;# 
  1679  010F                     	;# 
  1680  0110                     	;# 
  1681  0110                     	;# 
  1682  0111                     	;# 
  1683  0112                     	;# 
  1684  0112                     	;# 
  1685  0113                     	;# 
  1686  0114                     	;# 
  1687  0114                     	;# 
  1688  0115                     	;# 
  1689  0116                     	;# 
  1690  0116                     	;# 
  1691  0117                     	;# 
  1692  0119                     	;# 
  1693  0119                     	;# 
  1694  0119                     	;# 
  1695  011A                     	;# 
  1696  011A                     	;# 
  1697  011A                     	;# 
  1698  011B                     	;# 
  1699  011B                     	;# 
  1700  011B                     	;# 
  1701  011B                     	;# 
  1702  011B                     	;# 
  1703  011C                     	;# 
  1704  011C                     	;# 
  1705  011C                     	;# 
  1706  011D                     	;# 
  1707  011D                     	;# 
  1708  011D                     	;# 
  1709  011E                     	;# 
  1710  011E                     	;# 
  1711  011E                     	;# 
  1712  011F                     	;# 
  1713  011F                     	;# 
  1714  011F                     	;# 
  1715  011F                     	;# 
  1716  011F                     	;# 
  1717  018C                     	;# 
  1718  018D                     	;# 
  1719  018E                     	;# 
  1720  018F                     	;# 
  1721  0190                     	;# 
  1722  0191                     	;# 
  1723  0192                     	;# 
  1724  0196                     	;# 
  1725  0197                     	;# 
  1726  0198                     	;# 
  1727  0199                     	;# 
  1728  019A                     	;# 
  1729  019B                     	;# 
  1730  019C                     	;# 
  1731  020C                     	;# 
  1732  020C                     	;# 
  1733  020D                     	;# 
  1734  020E                     	;# 
  1735  020F                     	;# 
  1736  020F                     	;# 
  1737  0210                     	;# 
  1738  0210                     	;# 
  1739  0211                     	;# 
  1740  0211                     	;# 
  1741  0212                     	;# 
  1742  0212                     	;# 
  1743  0213                     	;# 
  1744  0214                     	;# 
  1745  0215                     	;# 
  1746  0215                     	;# 
  1747  0216                     	;# 
  1748  0216                     	;# 
  1749  0217                     	;# 
  1750  0217                     	;# 
  1751  0218                     	;# 
  1752  0218                     	;# 
  1753  0219                     	;# 
  1754  021A                     	;# 
  1755  021B                     	;# 
  1756  021B                     	;# 
  1757  021C                     	;# 
  1758  021C                     	;# 
  1759  021D                     	;# 
  1760  021D                     	;# 
  1761  021E                     	;# 
  1762  021F                     	;# 
  1763  028C                     	;# 
  1764  028C                     	;# 
  1765  028D                     	;# 
  1766  028D                     	;# 
  1767  028E                     	;# 
  1768  028F                     	;# 
  1769  0290                     	;# 
  1770  0290                     	;# 
  1771  0291                     	;# 
  1772  0292                     	;# 
  1773  0292                     	;# 
  1774  0293                     	;# 
  1775  0293                     	;# 
  1776  0294                     	;# 
  1777  0295                     	;# 
  1778  0296                     	;# 
  1779  0296                     	;# 
  1780  0297                     	;# 
  1781  0298                     	;# 
  1782  0298                     	;# 
  1783  0299                     	;# 
  1784  0299                     	;# 
  1785  029A                     	;# 
  1786  029B                     	;# 
  1787  029C                     	;# 
  1788  029C                     	;# 
  1789  029D                     	;# 
  1790  030C                     	;# 
  1791  030C                     	;# 
  1792  030D                     	;# 
  1793  030E                     	;# 
  1794  030F                     	;# 
  1795  0310                     	;# 
  1796  0310                     	;# 
  1797  0311                     	;# 
  1798  0312                     	;# 
  1799  0313                     	;# 
  1800  0314                     	;# 
  1801  0314                     	;# 
  1802  0315                     	;# 
  1803  0316                     	;# 
  1804  0317                     	;# 
  1805  0318                     	;# 
  1806  0318                     	;# 
  1807  0319                     	;# 
  1808  031A                     	;# 
  1809  031B                     	;# 
  1810  031C                     	;# 
  1811  031C                     	;# 
  1812  031D                     	;# 
  1813  031E                     	;# 
  1814  031F                     	;# 
  1815  038C                     	;# 
  1816  038C                     	;# 
  1817  038D                     	;# 
  1818  038E                     	;# 
  1819  0390                     	;# 
  1820  0390                     	;# 
  1821  0391                     	;# 
  1822  0392                     	;# 
  1823  040C                     	;# 
  1824  040D                     	;# 
  1825  040E                     	;# 
  1826  040F                     	;# 
  1827  0410                     	;# 
  1828  0411                     	;# 
  1829  0416                     	;# 
  1830  0416                     	;# 
  1831  0417                     	;# 
  1832  0418                     	;# 
  1833  0418                     	;# 
  1834  0419                     	;# 
  1835  041A                     	;# 
  1836  041A                     	;# 
  1837  041B                     	;# 
  1838  041C                     	;# 
  1839  041C                     	;# 
  1840  041D                     	;# 
  1841  041E                     	;# 
  1842  041F                     	;# 
  1843  048C                     	;# 
  1844  048C                     	;# 
  1845  048D                     	;# 
  1846  048E                     	;# 
  1847  048F                     	;# 
  1848  048F                     	;# 
  1849  0490                     	;# 
  1850  0491                     	;# 
  1851  0492                     	;# 
  1852  0492                     	;# 
  1853  0493                     	;# 
  1854  0494                     	;# 
  1855  0495                     	;# 
  1856  0495                     	;# 
  1857  0496                     	;# 
  1858  0497                     	;# 
  1859  0498                     	;# 
  1860  0499                     	;# 
  1861  049A                     	;# 
  1862  049B                     	;# 
  1863  049C                     	;# 
  1864  049D                     	;# 
  1865  050C                     	;# 
  1866  050C                     	;# 
  1867  050D                     	;# 
  1868  050E                     	;# 
  1869  050F                     	;# 
  1870  050F                     	;# 
  1871  0510                     	;# 
  1872  0511                     	;# 
  1873  0512                     	;# 
  1874  0512                     	;# 
  1875  0513                     	;# 
  1876  0514                     	;# 
  1877  0515                     	;# 
  1878  0515                     	;# 
  1879  0516                     	;# 
  1880  0517                     	;# 
  1881  0518                     	;# 
  1882  0519                     	;# 
  1883  051A                     	;# 
  1884  051B                     	;# 
  1885  051C                     	;# 
  1886  051D                     	;# 
  1887  058C                     	;# 
  1888  058C                     	;# 
  1889  058D                     	;# 
  1890  058E                     	;# 
  1891  058F                     	;# 
  1892  058F                     	;# 
  1893  0590                     	;# 
  1894  0591                     	;# 
  1895  0592                     	;# 
  1896  0593                     	;# 
  1897  060C                     	;# 
  1898  060D                     	;# 
  1899  060E                     	;# 
  1900  060F                     	;# 
  1901  0610                     	;# 
  1902  0611                     	;# 
  1903  0612                     	;# 
  1904  0613                     	;# 
  1905  0614                     	;# 
  1906  0616                     	;# 
  1907  0617                     	;# 
  1908  0618                     	;# 
  1909  0619                     	;# 
  1910  061A                     	;# 
  1911  061B                     	;# 
  1912  061C                     	;# 
  1913  061D                     	;# 
  1914  061E                     	;# 
  1915  068C                     	;# 
  1916  068D                     	;# 
  1917  068E                     	;# 
  1918  068F                     	;# 
  1919  0690                     	;# 
  1920  0691                     	;# 
  1921  0692                     	;# 
  1922  0693                     	;# 
  1923  0694                     	;# 
  1924  070C                     	;# 
  1925  070D                     	;# 
  1926  070E                     	;# 
  1927  070F                     	;# 
  1928  0710                     	;# 
  1929  0711                     	;# 
  1930  0712                     	;# 
  1931  0713                     	;# 
  1932  0714                     	;# 
  1933  0716                     	;# 
  1934  0717                     	;# 
  1935  0718                     	;# 
  1936  0719                     	;# 
  1937  071A                     	;# 
  1938  071B                     	;# 
  1939  071C                     	;# 
  1940  071D                     	;# 
  1941  071E                     	;# 
  1942  0796                     	;# 
  1943  0797                     	;# 
  1944  0798                     	;# 
  1945  0799                     	;# 
  1946  079A                     	;# 
  1947  079B                     	;# 
  1948  080C                     	;# 
  1949  080D                     	;# 
  1950  080E                     	;# 
  1951  080F                     	;# 
  1952  0810                     	;# 
  1953  0811                     	;# 
  1954  0812                     	;# 
  1955  0813                     	;# 
  1956  0814                     	;# 
  1957  081A                     	;# 
  1958  081B                     	;# 
  1959  081C                     	;# 
  1960  081D                     	;# 
  1961  081E                     	;# 
  1962  081F                     	;# 
  1963  088C                     	;# 
  1964  088D                     	;# 
  1965  088E                     	;# 
  1966  088F                     	;# 
  1967  0890                     	;# 
  1968  0891                     	;# 
  1969  0892                     	;# 
  1970  0893                     	;# 
  1971  0895                     	;# 
  1972  0896                     	;# 
  1973  0897                     	;# 
  1974  0898                     	;# 
  1975  0899                     	;# 
  1976  089A                     	;# 
  1977  089B                     	;# 
  1978  090C                     	;# 
  1979  090E                     	;# 
  1980  090F                     	;# 
  1981  091F                     	;# 
  1982  098F                     	;# 
  1983  098F                     	;# 
  1984  0990                     	;# 
  1985  0991                     	;# 
  1986  0992                     	;# 
  1987  0993                     	;# 
  1988  0994                     	;# 
  1989  0995                     	;# 
  1990  0996                     	;# 
  1991  0997                     	;# 
  1992  0E0F                     	;# 
  1993  0E10                     	;# 
  1994  0E11                     	;# 
  1995  0E12                     	;# 
  1996  0E13                     	;# 
  1997  0E14                     	;# 
  1998  0E15                     	;# 
  1999  0E16                     	;# 
  2000  0E17                     	;# 
  2001  0E18                     	;# 
  2002  0E19                     	;# 
  2003  0E1A                     	;# 
  2004  0E1B                     	;# 
  2005  0E1C                     	;# 
  2006  0E1D                     	;# 
  2007  0E1E                     	;# 
  2008  0E1F                     	;# 
  2009  0E20                     	;# 
  2010  0E21                     	;# 
  2011  0E22                     	;# 
  2012  0E23                     	;# 
  2013  0E24                     	;# 
  2014  0E25                     	;# 
  2015  0E26                     	;# 
  2016  0E27                     	;# 
  2017  0E28                     	;# 
  2018  0E29                     	;# 
  2019  0E2A                     	;# 
  2020  0E2B                     	;# 
  2021  0E2C                     	;# 
  2022  0E2D                     	;# 
  2023  0E2E                     	;# 
  2024  0E2F                     	;# 
  2025  0E30                     	;# 
  2026  0E31                     	;# 
  2027  0E32                     	;# 
  2028  0E33                     	;# 
  2029  0E34                     	;# 
  2030  0E35                     	;# 
  2031  0E36                     	;# 
  2032  0E37                     	;# 
  2033  0E8F                     	;# 
  2034  0E90                     	;# 
  2035  0E91                     	;# 
  2036  0E92                     	;# 
  2037  0E93                     	;# 
  2038  0E94                     	;# 
  2039  0E95                     	;# 
  2040  0E96                     	;# 
  2041  0E97                     	;# 
  2042  0E9C                     	;# 
  2043  0E9D                     	;# 
  2044  0E9E                     	;# 
  2045  0EA1                     	;# 
  2046  0EA2                     	;# 
  2047  0EA3                     	;# 
  2048  0EA4                     	;# 
  2049  0EA5                     	;# 
  2050  0EA9                     	;# 
  2051  0EAA                     	;# 
  2052  0EAB                     	;# 
  2053  0EAC                     	;# 
  2054  0EB1                     	;# 
  2055  0EB2                     	;# 
  2056  0EB3                     	;# 
  2057  0EB8                     	;# 
  2058  0EB9                     	;# 
  2059  0EBA                     	;# 
  2060  0EBB                     	;# 
  2061  0EBC                     	;# 
  2062  0EBD                     	;# 
  2063  0EBE                     	;# 
  2064  0EC3                     	;# 
  2065  0EC5                     	;# 
  2066  0EC6                     	;# 
  2067  0EC7                     	;# 
  2068  0EC8                     	;# 
  2069  0EC9                     	;# 
  2070  0ECA                     	;# 
  2071  0ECB                     	;# 
  2072  0ECC                     	;# 
  2073  0F10                     	;# 
  2074  0F11                     	;# 
  2075  0F12                     	;# 
  2076  0F13                     	;# 
  2077  0F14                     	;# 
  2078  0F15                     	;# 
  2079  0F16                     	;# 
  2080  0F17                     	;# 
  2081  0F18                     	;# 
  2082  0F19                     	;# 
  2083  0F1A                     	;# 
  2084  0F1B                     	;# 
  2085  0F1C                     	;# 
  2086  0F1D                     	;# 
  2087  0F1E                     	;# 
  2088  0F1F                     	;# 
  2089  0F20                     	;# 
  2090  0F21                     	;# 
  2091  0F22                     	;# 
  2092  0F23                     	;# 
  2093  0F24                     	;# 
  2094  0F25                     	;# 
  2095  0F26                     	;# 
  2096  0F27                     	;# 
  2097  0F38                     	;# 
  2098  0F39                     	;# 
  2099  0F3A                     	;# 
  2100  0F3B                     	;# 
  2101  0F3C                     	;# 
  2102  0F3D                     	;# 
  2103  0F3E                     	;# 
  2104  0F3F                     	;# 
  2105  0F40                     	;# 
  2106  0F41                     	;# 
  2107  0F43                     	;# 
  2108  0F44                     	;# 
  2109  0F45                     	;# 
  2110  0F46                     	;# 
  2111  0F47                     	;# 
  2112  0F48                     	;# 
  2113  0F49                     	;# 
  2114  0F4A                     	;# 
  2115  0F4B                     	;# 
  2116  0F4C                     	;# 
  2117  0F4E                     	;# 
  2118  0F4F                     	;# 
  2119  0F50                     	;# 
  2120  0F51                     	;# 
  2121  0F52                     	;# 
  2122  0F53                     	;# 
  2123  0F54                     	;# 
  2124  0F55                     	;# 
  2125  0F56                     	;# 
  2126  0F57                     	;# 
  2127  0F65                     	;# 
  2128  0F68                     	;# 
  2129  0F69                     	;# 
  2130  0F6A                     	;# 
  2131  0F6B                     	;# 
  2132  0FE4                     	;# 
  2133  0FE5                     	;# 
  2134  0FE6                     	;# 
  2135  0FE7                     	;# 
  2136  0FE8                     	;# 
  2137  0FE9                     	;# 
  2138  0FEA                     	;# 
  2139  0FEB                     	;# 
  2140  0FED                     	;# 
  2141  0FEE                     	;# 
  2142  0FEF                     	;# 
  2143                           
  2144                           	psect	idataBANK0
  2145  0288                     __pidataBANK0:	
  2146                           
  2147                           ;initializer for _led_arr
  2148  0288  34FF               	retlw	255
  2149  0289  34FF               	retlw	255
  2150  028A  34FF               	retlw	255
  2151  028B  34FF               	retlw	255
  2152  028C  34FF               	retlw	255
  2153  028D  34FF               	retlw	255
  2154  028E  34FF               	retlw	255
  2155  028F  34FF               	retlw	255
  2156  0290  34FF               	retlw	255
  2157  0291  34FF               	retlw	255
  2158  0292  34FF               	retlw	255
  2159  0293  34FF               	retlw	255
  2160  0294  34FF               	retlw	255
  2161  0295  34FF               	retlw	255
  2162  0296  34FF               	retlw	255
  2163  0297  34FF               	retlw	255
  2164                           
  2165                           ;initializer for _min
  2166  0298  34FF               	retlw	255
  2167  0299  3400               	retlw	0
  2168                           
  2169                           ;initializer for _T
  2170  029A  3470               	retlw	112
  2171  029B  3400               	retlw	0
  2172                           
  2173                           ;initializer for _peripheralAddr
  2174  029C  3432               	retlw	50
  2175  0012                     _TRISB	set	18
  2176  0018                     _LATC	set	24
  2177  0017                     _LATB	set	23
  2178  0016                     _LATA	set	22
  2179  000E                     _PORTC	set	14
  2180  000D                     _PORTB	set	13
  2181  000C                     _PORTA	set	12
  2182  0011                     _TRISA	set	17
  2183  0017                     _LATBbits	set	23
  2184  0013                     _TRISCbits	set	19
  2185  0013                     _TRISC	set	19
  2186  0012                     _TRISBbits	set	18
  2187  000B                     _INTCONbits	set	11
  2188  0093                     _ADCON0bits	set	147
  2189  009A                     _ADREFbits	set	154
  2190  0098                     _ADCLK	set	152
  2191  0095                     _ADCON2	set	149
  2192  0094                     _ADCON1	set	148
  2193  0093                     _ADCON0	set	147
  2194  008D                     _ADRESH	set	141
  2195  009E                     _ADPCH	set	158
  2196  011D                     _RC1STAbits	set	285
  2197  011E                     _TX1STAbits	set	286
  2198  011C                     _SP1BRGH	set	284
  2199  011B                     _SP1BRGL	set	283
  2200  011F                     _BAUD1CONbits	set	287
  2201  011A                     _TX1REG	set	282
  2202  0199                     _SSP2STATbits	set	409
  2203  0196                     _SSP2BUF	set	406
  2204  019B                     _SSP2CON2bits	set	411
  2205  0199                     _SSP2STAT	set	409
  2206  019B                     _SSP2CON2	set	411
  2207  0197                     _SSP2ADD	set	407
  2208  019A                     _SSP2CON1bits	set	410
  2209  019A                     _SSP2CON1	set	410
  2210  060D                     _CWG1ISMbits	set	1549
  2211  060C                     _CWG1CLKCONbits	set	1548
  2212  0613                     _CWG1AS1bits	set	1555
  2213  0612                     _CWG1AS0bits	set	1554
  2214  060F                     _CWG1DBF	set	1551
  2215  060E                     _CWG1DBR	set	1550
  2216  0610                     _CWG1CON0bits	set	1552
  2217  0717                     _PIE1bits	set	1815
  2218  0716                     _PIE0bits	set	1814
  2219  070F                     _PIR3bits	set	1807
  2220  070C                     _PIR0bits	set	1804
  2221  070D                     _PIR1bits	set	1805
  2222  0893                     _OSCFRQbits	set	2195
  2223  088D                     _OSCCON1bits	set	2189
  2224  0E19                     _CLC1GLS3	set	3609
  2225  0E18                     _CLC1GLS2	set	3608
  2226  0E17                     _CLC1GLS1	set	3607
  2227  0E11                     _CLC1POLbits	set	3601
  2228  0E16                     _CLC1GLS0	set	3606
  2229  0E15                     _CLC1SEL3bits	set	3605
  2230  0E14                     _CLC1SEL2bits	set	3604
  2231  0E13                     _CLC1SEL1bits	set	3603
  2232  0E12                     _CLC1SEL0bits	set	3602
  2233  0E10                     _CLC1CONbits	set	3600
  2234  0EBE                     _CLCIN3PPS	set	3774
  2235  0EBD                     _CLCIN2PPS	set	3773
  2236  0EC9                     _SSP2DATPPS	set	3785
  2237  0EC8                     _SSP2CLKPPS	set	3784
  2238  0EB1                     _CWG1PPS	set	3761
  2239  0E90                     _INTPPS	set	3728
  2240  0F43                     _ANSELB	set	3907
  2241  0F39                     _WPUA	set	3897
  2242  0F38                     _ANSELA	set	3896
  2243  0F4E                     _ANSELCbits	set	3918
  2244  0F23                     _RC3PPS	set	3875
  2245  0F1D                     _RB5PPS	set	3869
  2246  0F1C                     _RB4PPS	set	3868
  2247  0F22                     _RC2PPS	set	3874
  2248  0F21                     _RC1PPS	set	3873
  2249  0F26                     _RC6PPS	set	3878
  2250  0F27                     _RC7PPS	set	3879
  2251  0F4E                     _ANSELC	set	3918
  2252  0F43                     _ANSELBbits	set	3907
  2253  0F44                     _WPUBbits	set	3908
  2254                           
  2255                           ; #config settings
  2256  0000                     
  2257                           	psect	cinit
  2258  006C                     start_initialization:	
  2259  006C                     __initialization:	
  2260                           
  2261                           ; Initialize objects allocated to BANK0
  2262  006C  3088               	movlw	low __pidataBANK0
  2263  006D  0084               	movwf	4
  2264  006E  3082               	movlw	(high __pidataBANK0)| (0+128)
  2265  006F  0085               	movwf	5
  2266  0070  3040               	movlw	low __pdataBANK0
  2267  0071  0086               	movwf	6
  2268  0072  3000               	movlw	high __pdataBANK0
  2269  0073  0087               	movwf	7
  2270  0074  3015               	movlw	21
  2271  0075  3183  2344  3180   	fcall	init_ram
  2272                           
  2273                           ; Clear objects allocated to BANK0
  2274  0078  3020               	movlw	low __pbssBANK0
  2275  0079  0084               	movwf	4
  2276  007A  3000               	movlw	high __pbssBANK0
  2277  007B  0085               	movwf	5
  2278  007C  3020               	movlw	32
  2279  007D  3183  234A  3180   	fcall	clear_ram0
  2280  0080                     end_of_initialization:	
  2281                           ;End of C runtime variable initialization code
  2282                           
  2283  0080                     __end_of__initialization:	
  2284  0080  107E               	bcf	int$flags,0	;clear compiler interrupt flag (level 1)
  2285  0081  0020               	movlb	0
  2286  0082  3181  293B         	ljmp	_main	;jump to C main() function
  2287                           
  2288                           	psect	bssBANK0
  2289  0020                     __pbssBANK0:	
  2290  0020                     _ARR:	
  2291  0020                     	ds	20
  2292  0034                     _index:	
  2293  0034                     	ds	2
  2294  0036                     _recievedData:	
  2295  0036                     	ds	10
  2296                           
  2297                           	psect	dataBANK0
  2298  0040                     __pdataBANK0:	
  2299  0040                     _led_arr:	
  2300  0040                     	ds	16
  2301  0050                     _min:	
  2302  0050                     	ds	2
  2303  0052                     _T:	
  2304  0052                     	ds	2
  2305  0054                     _peripheralAddr:	
  2306  0054                     	ds	1
  2307                           
  2308                           	psect	inittext
  2309  0344                     init_ram:	
  2310  0344  00FE               	movwf	btemp
  2311  0345                     initloop:	
  2312  0345  0012               	moviw fsr0++
  2313  0346  001E               	movwi fsr1++
  2314  0347  0BFE               	decfsz	btemp,f
  2315  0348  2B45               	goto	initloop
  2316  0349  3400               	retlw	0
  2317                           
  2318                           	psect	clrtext
  2319  034A                     clear_ram0:	
  2320                           ;	Called with FSR0 containing the base address, and
  2321                           ;	WREG with the size to clear
  2322                           
  2323  034A  0064               	clrwdt	;clear the watchdog before getting into this loop
  2324  034B                     clrloop0:	
  2325  034B  0180               	clrf	0	;clear RAM location pointed to by FSR
  2326  034C  3101               	addfsr 0,1
  2327  034D  0B89               	decfsz	9,f	;Have we reached the end of clearing yet?
  2328  034E  2B4B               	goto	clrloop0	;have we reached the end yet?
  2329  034F  3400               	retlw	0	;all done for this memory range, return
  2330                           
  2331                           	psect	cstackBANK1
  2332  00A0                     __pcstackBANK1:	
  2333  00A0                     ??_init_oc:	
  2334  00A0                     ??_init_port:	
  2335                           ; 1 bytes @ 0x0
  2336                           
  2337  00A0                     ??_initADC:	
  2338                           ; 1 bytes @ 0x0
  2339                           
  2340  00A0                     ??_set_interrupt:	
  2341                           ; 1 bytes @ 0x0
  2342                           
  2343  00A0                     ??_set_pps:	
  2344                           ; 1 bytes @ 0x0
  2345                           
  2346  00A0                     ??_set_eusart:	
  2347                           ; 1 bytes @ 0x0
  2348                           
  2349  00A0                     ??_set_cwg:	
  2350                           ; 1 bytes @ 0x0
  2351                           
  2352  00A0                     ??_set_clc:	
  2353                           ; 1 bytes @ 0x0
  2354                           
  2355  00A0                     ?_initHardware:	
  2356                           ; 1 bytes @ 0x0
  2357                           
  2358  00A0                     ??_initIICCenterMode:	
  2359                           ; 1 bytes @ 0x0
  2360                           
  2361  00A0                     ?_delay:	
  2362                           ; 1 bytes @ 0x0
  2363                           
  2364  00A0                     delay@delay_time:	
  2365                           ; 1 bytes @ 0x0
  2366                           
  2367  00A0                     initHardware@isCenterBoard:	
  2368                           ; 2 bytes @ 0x0
  2369                           
  2370                           
  2371                           ; 2 bytes @ 0x0
  2372  00A0                     	ds	2
  2373  00A2                     ??_delay:	
  2374  00A2                     initHardware@iicAddr:	
  2375                           ; 1 bytes @ 0x2
  2376                           
  2377                           
  2378                           ; 1 bytes @ 0x2
  2379  00A2                     	ds	1
  2380  00A3                     ??_initHardware:	
  2381  00A3                     delay@i:	
  2382                           ; 1 bytes @ 0x3
  2383                           
  2384                           
  2385                           ; 2 bytes @ 0x3
  2386  00A3                     	ds	2
  2387  00A5                     ??_startADC:	
  2388  00A5                     ??_main:	
  2389                           ; 1 bytes @ 0x5
  2390                           
  2391                           
  2392                           ; 1 bytes @ 0x5
  2393  00A5                     	ds	1
  2394                           
  2395                           	psect	cstackCOMMON
  2396  0070                     __pcstackCOMMON:	
  2397  0070                     ?_lightIntrpt:	
  2398  0070                     ?_lightup:	
  2399                           ; 1 bytes @ 0x0
  2400                           
  2401  0070                     ?_disable_out:	
  2402                           ; 1 bytes @ 0x0
  2403                           
  2404  0070                     ?_enable_out:	
  2405                           ; 1 bytes @ 0x0
  2406                           
  2407  0070                     ??_enable_out:	
  2408                           ; 1 bytes @ 0x0
  2409                           
  2410  0070                     ?_out_reset:	
  2411                           ; 1 bytes @ 0x0
  2412                           
  2413  0070                     ?_init_oc:	
  2414                           ; 1 bytes @ 0x0
  2415                           
  2416  0070                     ?_init_port:	
  2417                           ; 1 bytes @ 0x0
  2418                           
  2419  0070                     ?_initADC:	
  2420                           ; 1 bytes @ 0x0
  2421                           
  2422  0070                     ?_set_interrupt:	
  2423                           ; 1 bytes @ 0x0
  2424                           
  2425  0070                     ?_set_pps:	
  2426                           ; 1 bytes @ 0x0
  2427                           
  2428  0070                     ?_set_eusart:	
  2429                           ; 1 bytes @ 0x0
  2430                           
  2431  0070                     ?_set_cwg:	
  2432                           ; 1 bytes @ 0x0
  2433                           
  2434  0070                     ?_set_clc:	
  2435                           ; 1 bytes @ 0x0
  2436                           
  2437  0070                     ?_startADC:	
  2438                           ; 1 bytes @ 0x0
  2439                           
  2440  0070                     ?_initIICCenterMode:	
  2441                           ; 1 bytes @ 0x0
  2442                           
  2443  0070                     ?_IIC_Start:	
  2444                           ; 1 bytes @ 0x0
  2445                           
  2446  0070                     ??_IIC_Start:	
  2447                           ; 1 bytes @ 0x0
  2448                           
  2449  0070                     ?_IIC_Write_Byte:	
  2450                           ; 1 bytes @ 0x0
  2451                           
  2452  0070                     ??_IIC_Write_Byte:	
  2453                           ; 1 bytes @ 0x0
  2454                           
  2455  0070                     ?_IIC_Stop:	
  2456                           ; 1 bytes @ 0x0
  2457                           
  2458  0070                     ??_IIC_Stop:	
  2459                           ; 1 bytes @ 0x0
  2460                           
  2461  0070                     ?_irs_routine:	
  2462                           ; 1 bytes @ 0x0
  2463                           
  2464  0070                     ?_main:	
  2465                           ; 1 bytes @ 0x0
  2466                           
  2467  0070                     ?i1_delay:	
  2468                           ; 1 bytes @ 0x0
  2469                           
  2470  0070                     ?___wmul:	
  2471                           ; 1 bytes @ 0x0
  2472                           
  2473  0070                     IIC_Write_Byte@d:	
  2474                           ; 2 bytes @ 0x0
  2475                           
  2476  0070                     ___wmul@multiplier:	
  2477                           ; 1 bytes @ 0x0
  2478                           
  2479  0070                     i1delay@delay_time:	
  2480                           ; 2 bytes @ 0x0
  2481                           
  2482                           
  2483                           ; 2 bytes @ 0x0
  2484  0070                     	ds	1
  2485  0071                     ?_centerWriteToPeripheral:	
  2486  0071                     centerWriteToPeripheral@data:	
  2487                           ; 1 bytes @ 0x1
  2488                           
  2489                           
  2490                           ; 1 bytes @ 0x1
  2491  0071                     	ds	1
  2492  0072                     ??_centerWriteToPeripheral:	
  2493  0072                     ??i1_delay:	
  2494                           ; 1 bytes @ 0x2
  2495                           
  2496  0072                     centerWriteToPeripheral@peripheralAddr:	
  2497                           ; 1 bytes @ 0x2
  2498                           
  2499  0072                     ___wmul@multiplicand:	
  2500                           ; 1 bytes @ 0x2
  2501                           
  2502                           
  2503                           ; 2 bytes @ 0x2
  2504  0072                     	ds	1
  2505  0073                     i1delay@i:	
  2506                           
  2507                           ; 2 bytes @ 0x3
  2508  0073                     	ds	1
  2509  0074                     ??___wmul:	
  2510  0074                     ___wmul@product:	
  2511                           ; 1 bytes @ 0x4
  2512                           
  2513                           
  2514                           ; 2 bytes @ 0x4
  2515  0074                     	ds	1
  2516  0075                     ??_lightIntrpt:	
  2517  0075                     ??_disable_out:	
  2518                           ; 1 bytes @ 0x5
  2519                           
  2520  0075                     ??_out_reset:	
  2521                           ; 1 bytes @ 0x5
  2522                           
  2523                           
  2524                           ; 1 bytes @ 0x5
  2525  0075                     	ds	1
  2526  0076                     ?_turn_off_all:	
  2527  0076                     turn_off_all@num:	
  2528                           ; 1 bytes @ 0x6
  2529                           
  2530                           
  2531                           ; 2 bytes @ 0x6
  2532  0076                     	ds	2
  2533  0078                     ??_turn_off_all:	
  2534                           
  2535                           ; 1 bytes @ 0x8
  2536  0078                     	ds	1
  2537  0079                     turn_off_all@i:	
  2538                           
  2539                           ; 2 bytes @ 0x9
  2540  0079                     	ds	2
  2541  007B                     ??_lightup:	
  2542                           
  2543                           ; 1 bytes @ 0xB
  2544  007B                     	ds	3
  2545                           
  2546                           	psect	cstackBANK0
  2547  0055                     __pcstackBANK0:	
  2548  0055                     lightup@count:	
  2549                           
  2550                           ; 2 bytes @ 0x0
  2551  0055                     	ds	2
  2552  0057                     lightup@R:	
  2553                           
  2554                           ; 2 bytes @ 0x2
  2555  0057                     	ds	2
  2556  0059                     lightup@G:	
  2557                           
  2558                           ; 2 bytes @ 0x4
  2559  0059                     	ds	2
  2560  005B                     lightup@B:	
  2561                           
  2562                           ; 2 bytes @ 0x6
  2563  005B                     	ds	2
  2564  005D                     lightup@i:	
  2565                           
  2566                           ; 2 bytes @ 0x8
  2567  005D                     	ds	2
  2568  005F                     lightup@led_addr:	
  2569                           
  2570                           ; 2 bytes @ 0xA
  2571  005F                     	ds	2
  2572  0061                     lightup@led_val:	
  2573                           
  2574                           ; 1 bytes @ 0xC
  2575  0061                     	ds	1
  2576  0062                     ??_irs_routine:	
  2577                           
  2578                           ; 1 bytes @ 0xD
  2579  0062                     	ds	2
  2580                           
  2581                           	psect	maintext
  2582  013B                     __pmaintext:	
  2583 ;;
  2584 ;;Main: autosize = 0, tempsize = 1, incstack = 0, save=0
  2585 ;;
  2586 ;; *************** function _main *****************
  2587 ;; Defined at:
  2588 ;;		line 90 in file "main.c"
  2589 ;; Parameters:    Size  Location     Type
  2590 ;;		None
  2591 ;; Auto vars:     Size  Location     Type
  2592 ;;		None
  2593 ;; Return value:  Size  Location     Type
  2594 ;;                  1    wreg      void 
  2595 ;; Registers used:
  2596 ;;		wreg, status,2, status,0, pclath, cstack
  2597 ;; Tracked objects:
  2598 ;;		On entry : B1F/0
  2599 ;;		On exit  : 0/0
  2600 ;;		Unchanged: 0/0
  2601 ;; Data sizes:     COMMON   BANK0   BANK1   BANK2   BANK3   BANK4   BANK5   BANK6
  2602 ;;      Params:         0       0       0       0       0       0       0       0
  2603 ;;      Locals:         0       0       0       0       0       0       0       0
  2604 ;;      Temps:          0       0       1       0       0       0       0       0
  2605 ;;      Totals:         0       0       1       0       0       0       0       0
  2606 ;;Total ram usage:        1 bytes
  2607 ;; Hardware stack levels required when called:    6
  2608 ;; This function calls:
  2609 ;;		_initADC
  2610 ;;		_initHardware
  2611 ;;		_init_oc
  2612 ;;		_init_port
  2613 ;;		_set_clc
  2614 ;;		_set_cwg
  2615 ;;		_set_eusart
  2616 ;;		_set_interrupt
  2617 ;;		_set_pps
  2618 ;;		_startADC
  2619 ;; This function is called by:
  2620 ;;		Startup code after reset
  2621 ;; This function uses a non-reentrant model
  2622 ;;
  2623                           
  2624                           
  2625                           ;psect for function _main
  2626  013B                     _main:	
  2627  013B                     l1799:	
  2628                           ;incstack = 0
  2629                           ; Regs used in _main: [wreg+status,2+status,0+pclath+cstack]
  2630                           
  2631                           
  2632                           ;main.c: 91: init_oc();
  2633  013B  3183  233C  3181   	fcall	_init_oc
  2634  013E                     l1801:	
  2635                           
  2636                           ;main.c: 92: init_port();
  2637  013E  3182  22E7  3181   	fcall	_init_port
  2638  0141                     l1803:	
  2639                           
  2640                           ;main.c: 93: initADC();
  2641  0141  3182  22B2  3181   	fcall	_initADC
  2642                           
  2643                           ;main.c: 94: set_interrupt();
  2644  0144  3183  2316  3181   	fcall	_set_interrupt
  2645  0147                     l1805:	
  2646                           
  2647                           ;main.c: 96: set_pps();
  2648  0147  3181  2193  3181   	fcall	_set_pps
  2649  014A                     l1807:	
  2650                           
  2651                           ;main.c: 97: set_eusart();
  2652  014A  3182  22F4  3181   	fcall	_set_eusart
  2653  014D                     l1809:	
  2654                           
  2655                           ;main.c: 98: set_cwg();
  2656  014D  3181  21D5  3181   	fcall	_set_cwg
  2657  0150                     l1811:	
  2658                           
  2659                           ;main.c: 99: set_clc();
  2660  0150  3182  2241  3181   	fcall	_set_clc
  2661  0153                     l1813:	
  2662                           
  2663                           ;main.c: 101: WPUBbits.WPUB4 = 1;
  2664  0153  003E               	movlb	30	; select bank30
  2665  0154  1644               	bsf	68,4	;volatile
  2666  0155                     l1815:	
  2667                           
  2668                           ;main.c: 102: WPUBbits.WPUB5 = 1;
  2669  0155  16C4               	bsf	68,5	;volatile
  2670  0156                     l1817:	
  2671                           
  2672                           ;main.c: 104: initHardware(1, peripheralAddr);
  2673  0156  3001               	movlw	1
  2674  0157  0021               	movlb	1	; select bank1
  2675  0158  00A0               	movwf	initHardware@isCenterBoard^(0+128)
  2676  0159  3000               	movlw	0
  2677  015A  00A1               	movwf	(initHardware@isCenterBoard^(0+128)+1)
  2678  015B  0020               	movlb	0	; select bank0
  2679  015C  0854               	movf	_peripheralAddr,w
  2680  015D  0021               	movlb	1	; select bank1
  2681  015E  00A5               	movwf	??_main^(0+128)
  2682  015F  0825               	movf	??_main^(0+128),w
  2683  0160  00A2               	movwf	initHardware@iicAddr^(0+128)
  2684  0161  3181  21F3  3181   	fcall	_initHardware
  2685  0164                     l1819:	
  2686                           
  2687                           ;main.c: 107: startADC();
  2688  0164  3182  220E  3181   	fcall	_startADC
  2689  0167  2964               	goto	l1819
  2690  0168  3180  286A         	ljmp	start
  2691  016A                     __end_of_main:	
  2692                           
  2693                           	psect	text1
  2694  020E                     __ptext1:	
  2695 ;; *************** function _startADC *****************
  2696 ;; Defined at:
  2697 ;;		line 348 in file "main.c"
  2698 ;; Parameters:    Size  Location     Type
  2699 ;;		None
  2700 ;; Auto vars:     Size  Location     Type
  2701 ;;		None
  2702 ;; Return value:  Size  Location     Type
  2703 ;;                  1    wreg      void 
  2704 ;; Registers used:
  2705 ;;		wreg, status,2, status,0, pclath, cstack
  2706 ;; Tracked objects:
  2707 ;;		On entry : 0/0
  2708 ;;		On exit  : 0/0
  2709 ;;		Unchanged: 0/0
  2710 ;; Data sizes:     COMMON   BANK0   BANK1   BANK2   BANK3   BANK4   BANK5   BANK6
  2711 ;;      Params:         0       0       0       0       0       0       0       0
  2712 ;;      Locals:         0       0       0       0       0       0       0       0
  2713 ;;      Temps:          0       0       0       0       0       0       0       0
  2714 ;;      Totals:         0       0       0       0       0       0       0       0
  2715 ;;Total ram usage:        0 bytes
  2716 ;; Hardware stack levels used:    1
  2717 ;; Hardware stack levels required when called:    5
  2718 ;; This function calls:
  2719 ;;		_delay
  2720 ;; This function is called by:
  2721 ;;		_main
  2722 ;; This function uses a non-reentrant model
  2723 ;;
  2724                           
  2725                           
  2726                           ;psect for function _startADC
  2727  020E                     _startADC:	
  2728  020E                     l1787:	
  2729                           ;incstack = 0
  2730                           ; Regs used in _startADC: [wreg+status,2+status,0+pclath+cstack]
  2731                           
  2732                           
  2733                           ;main.c: 350: TRISA = 0x00;
  2734  020E  0020               	movlb	0	; select bank0
  2735  020F  0191               	clrf	17	;volatile
  2736  0210                     l1789:	
  2737                           
  2738                           ;main.c: 353: WPUA = 0xff;
  2739  0210  30FF               	movlw	255
  2740  0211  003E               	movlb	30	; select bank30
  2741  0212  00B9               	movwf	57	;volatile
  2742  0213                     l1791:	
  2743                           
  2744                           ;main.c: 355: delay(1000);
  2745  0213  30E8               	movlw	232
  2746  0214  0021               	movlb	1	; select bank1
  2747  0215  00A0               	movwf	delay@delay_time^(0+128)
  2748  0216  3003               	movlw	3
  2749  0217  00A1               	movwf	(delay@delay_time^(0+128)+1)
  2750  0218  3182  2228  3182   	fcall	_delay
  2751  021B                     l1793:	
  2752                           
  2753                           ;main.c: 356: TRISA = 0xff;
  2754  021B  30FF               	movlw	255
  2755  021C  0020               	movlb	0	; select bank0
  2756  021D  0091               	movwf	17	;volatile
  2757  021E                     l1795:	
  2758                           
  2759                           ;main.c: 357: ANSELA = 0xff;
  2760  021E  30FF               	movlw	255
  2761  021F  003E               	movlb	30	; select bank30
  2762  0220  00B8               	movwf	56	;volatile
  2763  0221                     l1797:	
  2764                           
  2765                           ;main.c: 359: ADCON0bits.GO = 1;
  2766  0221  0021               	movlb	1	; select bank1
  2767  0222  1413               	bsf	19,0	;volatile
  2768  0223                     l265:	
  2769                           ;main.c: 360: while(ADCON0bits.GO);
  2770                           
  2771  0223  1813               	btfsc	19,0	;volatile
  2772  0224  2A26               	goto	u701
  2773  0225  2A27               	goto	u700
  2774  0226                     u701:	
  2775  0226  2A23               	goto	l265
  2776  0227                     u700:	
  2777  0227                     l268:	
  2778  0227  0008               	return
  2779  0228                     __end_of_startADC:	
  2780                           
  2781                           	psect	text2
  2782  0228                     __ptext2:	
  2783 ;; *************** function _delay *****************
  2784 ;; Defined at:
  2785 ;;		line 287 in file "main.c"
  2786 ;; Parameters:    Size  Location     Type
  2787 ;;  delay_time      2    0[BANK1 ] int 
  2788 ;; Auto vars:     Size  Location     Type
  2789 ;;  i               2    3[BANK1 ] int 
  2790 ;; Return value:  Size  Location     Type
  2791 ;;                  1    wreg      void 
  2792 ;; Registers used:
  2793 ;;		wreg
  2794 ;; Tracked objects:
  2795 ;;		On entry : 0/0
  2796 ;;		On exit  : 0/0
  2797 ;;		Unchanged: 0/0
  2798 ;; Data sizes:     COMMON   BANK0   BANK1   BANK2   BANK3   BANK4   BANK5   BANK6
  2799 ;;      Params:         0       0       2       0       0       0       0       0
  2800 ;;      Locals:         0       0       2       0       0       0       0       0
  2801 ;;      Temps:          0       0       1       0       0       0       0       0
  2802 ;;      Totals:         0       0       5       0       0       0       0       0
  2803 ;;Total ram usage:        5 bytes
  2804 ;; Hardware stack levels used:    1
  2805 ;; Hardware stack levels required when called:    4
  2806 ;; This function calls:
  2807 ;;		Nothing
  2808 ;; This function is called by:
  2809 ;;		_startADC
  2810 ;; This function uses a non-reentrant model
  2811 ;;
  2812                           
  2813                           
  2814                           ;psect for function _delay
  2815  0228                     _delay:	
  2816  0228                     l1681:	
  2817                           ;incstack = 0
  2818                           ; Regs used in _delay: [wreg]
  2819                           
  2820                           
  2821                           ;main.c: 288: int i = delay_time;
  2822  0228  0021               	movlb	1	; select bank1
  2823  0229  0821               	movf	(delay@delay_time+1)^(0+128),w
  2824  022A  00A4               	movwf	(delay@i+1)^(0+128)
  2825  022B  0820               	movf	delay@delay_time^(0+128),w
  2826  022C  00A3               	movwf	delay@i^(0+128)
  2827                           
  2828                           ;main.c: 289: while (i > 0) {
  2829  022D  2A33               	goto	l241
  2830  022E                     l1683:	
  2831                           
  2832                           ;main.c: 290: --i;
  2833  022E  30FF               	movlw	255
  2834  022F  0021               	movlb	1	; select bank1
  2835  0230  07A3               	addwf	delay@i^(0+128),f
  2836  0231  30FF               	movlw	255
  2837  0232  3DA4               	addwfc	(delay@i+1)^(0+128),f
  2838  0233                     l241:	
  2839  0233  0824               	movf	(delay@i+1)^(0+128),w
  2840  0234  3A80               	xorlw	128
  2841  0235  00A2               	movwf	??_delay^(0+128)
  2842  0236  3080               	movlw	128
  2843  0237  0222               	subwf	??_delay^(0+128),w
  2844  0238  1D03               	skipz
  2845  0239  2A3C               	goto	u685
  2846  023A  3001               	movlw	1
  2847  023B  0223               	subwf	delay@i^(0+128),w
  2848  023C                     u685:	
  2849  023C  1803               	skipnc
  2850  023D  2A3F               	goto	u681
  2851  023E  2A40               	goto	u680
  2852  023F                     u681:	
  2853  023F  2A2E               	goto	l1683
  2854  0240                     u680:	
  2855  0240                     l244:	
  2856  0240  0008               	return
  2857  0241                     __end_of_delay:	
  2858                           
  2859                           	psect	text3
  2860  0193                     __ptext3:	
  2861 ;; *************** function _set_pps *****************
  2862 ;; Defined at:
  2863 ;;		line 192 in file "main.c"
  2864 ;; Parameters:    Size  Location     Type
  2865 ;;		None
  2866 ;; Auto vars:     Size  Location     Type
  2867 ;;		None
  2868 ;; Return value:  Size  Location     Type
  2869 ;;                  1    wreg      void 
  2870 ;; Registers used:
  2871 ;;		wreg
  2872 ;; Tracked objects:
  2873 ;;		On entry : 0/0
  2874 ;;		On exit  : 0/0
  2875 ;;		Unchanged: 0/0
  2876 ;; Data sizes:     COMMON   BANK0   BANK1   BANK2   BANK3   BANK4   BANK5   BANK6
  2877 ;;      Params:         0       0       0       0       0       0       0       0
  2878 ;;      Locals:         0       0       0       0       0       0       0       0
  2879 ;;      Temps:          0       0       0       0       0       0       0       0
  2880 ;;      Totals:         0       0       0       0       0       0       0       0
  2881 ;;Total ram usage:        0 bytes
  2882 ;; Hardware stack levels used:    1
  2883 ;; Hardware stack levels required when called:    4
  2884 ;; This function calls:
  2885 ;;		Nothing
  2886 ;; This function is called by:
  2887 ;;		_main
  2888 ;; This function uses a non-reentrant model
  2889 ;;
  2890                           
  2891                           
  2892                           ;psect for function _set_pps
  2893  0193                     _set_pps:	
  2894  0193                     l1721:	
  2895                           ;incstack = 0
  2896                           ; Regs used in _set_pps: [wreg]
  2897                           
  2898                           
  2899                           ;main.c: 194: RC7PPS = 0x11;
  2900  0193  3011               	movlw	17
  2901  0194  003E               	movlb	30	; select bank30
  2902  0195  00A7               	movwf	39	;volatile
  2903                           
  2904                           ;main.c: 195: RC6PPS = 0x10;
  2905  0196  3010               	movlw	16
  2906  0197  00A6               	movwf	38	;volatile
  2907                           
  2908                           ;main.c: 198: CWG1PPS = 0x16;
  2909  0198  3016               	movlw	22
  2910  0199  003D               	movlb	29	; select bank29
  2911  019A  00B1               	movwf	49	;volatile
  2912                           
  2913                           ;main.c: 200: RC1PPS = 0x05;
  2914  019B  3005               	movlw	5
  2915  019C  003E               	movlb	30	; select bank30
  2916  019D  00A1               	movwf	33	;volatile
  2917                           
  2918                           ;main.c: 201: RC2PPS = 0x06;
  2919  019E  3006               	movlw	6
  2920  019F  00A2               	movwf	34	;volatile
  2921                           
  2922                           ;main.c: 211: SSP2CLKPPS = 0x0c;
  2923  01A0  300C               	movlw	12
  2924  01A1  003D               	movlb	29	; select bank29
  2925  01A2  00C8               	movwf	72	;volatile
  2926                           
  2927                           ;main.c: 212: SSP2DATPPS = 0x0d;
  2928  01A3  300D               	movlw	13
  2929  01A4  00C9               	movwf	73	;volatile
  2930                           
  2931                           ;main.c: 213: RB4PPS = 0x16;
  2932  01A5  3016               	movlw	22
  2933  01A6  003E               	movlb	30	; select bank30
  2934  01A7  009C               	movwf	28	;volatile
  2935                           
  2936                           ;main.c: 214: RB5PPS = 0x17;
  2937  01A8  3017               	movlw	23
  2938  01A9  009D               	movwf	29	;volatile
  2939                           
  2940                           ;main.c: 219: CLCIN2PPS = 0x11;
  2941  01AA  3011               	movlw	17
  2942  01AB  003D               	movlb	29	; select bank29
  2943  01AC  00BD               	movwf	61	;volatile
  2944                           
  2945                           ;main.c: 220: CLCIN3PPS = 0x12;
  2946  01AD  3012               	movlw	18
  2947  01AE  00BE               	movwf	62	;volatile
  2948                           
  2949                           ;main.c: 222: RC3PPS = 0x01;
  2950  01AF  3001               	movlw	1
  2951  01B0  003E               	movlb	30	; select bank30
  2952  01B1  00A3               	movwf	35	;volatile
  2953  01B2                     l1723:	
  2954                           
  2955                           ;main.c: 223: ANSELCbits.ANSC3 = 0;
  2956  01B2  11CE               	bcf	78,3	;volatile
  2957  01B3                     l1725:	
  2958                           
  2959                           ;main.c: 224: TRISCbits.TRISC3 = 0;
  2960  01B3  0020               	movlb	0	; select bank0
  2961  01B4  1193               	bcf	19,3	;volatile
  2962  01B5                     l229:	
  2963  01B5  0008               	return
  2964  01B6                     __end_of_set_pps:	
  2965                           
  2966                           	psect	text4
  2967  0316                     __ptext4:	
  2968 ;; *************** function _set_interrupt *****************
  2969 ;; Defined at:
  2970 ;;		line 152 in file "main.c"
  2971 ;; Parameters:    Size  Location     Type
  2972 ;;		None
  2973 ;; Auto vars:     Size  Location     Type
  2974 ;;		None
  2975 ;; Return value:  Size  Location     Type
  2976 ;;                  1    wreg      void 
  2977 ;; Registers used:
  2978 ;;		status,2
  2979 ;; Tracked objects:
  2980 ;;		On entry : 0/0
  2981 ;;		On exit  : 0/0
  2982 ;;		Unchanged: 0/0
  2983 ;; Data sizes:     COMMON   BANK0   BANK1   BANK2   BANK3   BANK4   BANK5   BANK6
  2984 ;;      Params:         0       0       0       0       0       0       0       0
  2985 ;;      Locals:         0       0       0       0       0       0       0       0
  2986 ;;      Temps:          0       0       0       0       0       0       0       0
  2987 ;;      Totals:         0       0       0       0       0       0       0       0
  2988 ;;Total ram usage:        0 bytes
  2989 ;; Hardware stack levels used:    1
  2990 ;; Hardware stack levels required when called:    4
  2991 ;; This function calls:
  2992 ;;		Nothing
  2993 ;; This function is called by:
  2994 ;;		_main
  2995 ;; This function uses a non-reentrant model
  2996 ;;
  2997                           
  2998                           
  2999                           ;psect for function _set_interrupt
  3000  0316                     _set_interrupt:	
  3001  0316                     l1715:	
  3002                           ;incstack = 0
  3003                           ; Regs used in _set_interrupt: [status,2]
  3004                           
  3005                           
  3006                           ;main.c: 153: INTCONbits.GIE = 1;
  3007  0316  178B               	bsf	11,7	;volatile
  3008                           
  3009                           ;main.c: 154: INTCONbits.PEIE = 1;
  3010  0317  170B               	bsf	11,6	;volatile
  3011                           
  3012                           ;main.c: 155: PIE0bits.INTE = 1;
  3013  0318  002E               	movlb	14	; select bank14
  3014  0319  1416               	bsf	22,0	;volatile
  3015                           
  3016                           ;main.c: 157: INTCONbits.INTEDG = 1;
  3017  031A  140B               	bsf	11,0	;volatile
  3018  031B                     l1717:	
  3019                           
  3020                           ;main.c: 158: INTPPS = 0x00;
  3021  031B  003D               	movlb	29	; select bank29
  3022  031C  0190               	clrf	16	;volatile
  3023  031D                     l1719:	
  3024                           
  3025                           ;main.c: 160: PIE1bits.ADIE = 1;
  3026  031D  002E               	movlb	14	; select bank14
  3027  031E  1417               	bsf	23,0	;volatile
  3028  031F                     l220:	
  3029  031F  0008               	return
  3030  0320                     __end_of_set_interrupt:	
  3031                           
  3032                           	psect	text5
  3033  02F4                     __ptext5:	
  3034 ;; *************** function _set_eusart *****************
  3035 ;; Defined at:
  3036 ;;		line 175 in file "main.c"
  3037 ;; Parameters:    Size  Location     Type
  3038 ;;		None
  3039 ;; Auto vars:     Size  Location     Type
  3040 ;;		None
  3041 ;; Return value:  Size  Location     Type
  3042 ;;                  1    wreg      void 
  3043 ;; Registers used:
  3044 ;;		wreg, status,2
  3045 ;; Tracked objects:
  3046 ;;		On entry : 0/0
  3047 ;;		On exit  : 0/0
  3048 ;;		Unchanged: 0/0
  3049 ;; Data sizes:     COMMON   BANK0   BANK1   BANK2   BANK3   BANK4   BANK5   BANK6
  3050 ;;      Params:         0       0       0       0       0       0       0       0
  3051 ;;      Locals:         0       0       0       0       0       0       0       0
  3052 ;;      Temps:          0       0       0       0       0       0       0       0
  3053 ;;      Totals:         0       0       0       0       0       0       0       0
  3054 ;;Total ram usage:        0 bytes
  3055 ;; Hardware stack levels used:    1
  3056 ;; Hardware stack levels required when called:    4
  3057 ;; This function calls:
  3058 ;;		Nothing
  3059 ;; This function is called by:
  3060 ;;		_main
  3061 ;; This function uses a non-reentrant model
  3062 ;;
  3063                           
  3064                           
  3065                           ;psect for function _set_eusart
  3066  02F4                     _set_eusart:	
  3067  02F4                     l1727:	
  3068                           ;incstack = 0
  3069                           ; Regs used in _set_eusart: [wreg+status,2]
  3070                           
  3071                           
  3072                           ;main.c: 177: BAUD1CONbits.BRG16 = 1;
  3073  02F4  0022               	movlb	2	; select bank2
  3074  02F5  159F               	bsf	31,3	;volatile
  3075  02F6                     l1729:	
  3076                           
  3077                           ;main.c: 178: SP1BRGL = 0xce;
  3078  02F6  30CE               	movlw	206
  3079  02F7  009B               	movwf	27	;volatile
  3080  02F8                     l1731:	
  3081                           
  3082                           ;main.c: 179: SP1BRGH = 0x00;
  3083  02F8  019C               	clrf	28	;volatile
  3084  02F9                     l1733:	
  3085                           
  3086                           ;main.c: 182: TX1STAbits.CSRC = 1;
  3087  02F9  179E               	bsf	30,7	;volatile
  3088  02FA                     l1735:	
  3089                           
  3090                           ;main.c: 183: TX1STAbits.SYNC = 1;
  3091  02FA  161E               	bsf	30,4	;volatile
  3092  02FB                     l1737:	
  3093                           
  3094                           ;main.c: 185: TX1STAbits.TX9 = 0;
  3095  02FB  131E               	bcf	30,6	;volatile
  3096  02FC                     l1739:	
  3097                           
  3098                           ;main.c: 186: RC1STAbits.RX9 = 0;
  3099  02FC  131D               	bcf	29,6	;volatile
  3100  02FD                     l1741:	
  3101                           
  3102                           ;main.c: 188: RC1STAbits.SPEN = 1;
  3103  02FD  179D               	bsf	29,7	;volatile
  3104  02FE                     l1743:	
  3105                           
  3106                           ;main.c: 189: RC1STAbits.CREN = 0;
  3107  02FE  121D               	bcf	29,4	;volatile
  3108  02FF                     l226:	
  3109  02FF  0008               	return
  3110  0300                     __end_of_set_eusart:	
  3111                           
  3112                           	psect	text6
  3113  01D5                     __ptext6:	
  3114 ;; *************** function _set_cwg *****************
  3115 ;; Defined at:
  3116 ;;		line 227 in file "main.c"
  3117 ;; Parameters:    Size  Location     Type
  3118 ;;		None
  3119 ;; Auto vars:     Size  Location     Type
  3120 ;;		None
  3121 ;; Return value:  Size  Location     Type
  3122 ;;                  1    wreg      void 
  3123 ;; Registers used:
  3124 ;;		wreg, status,2, status,0
  3125 ;; Tracked objects:
  3126 ;;		On entry : 0/0
  3127 ;;		On exit  : 0/0
  3128 ;;		Unchanged: 0/0
  3129 ;; Data sizes:     COMMON   BANK0   BANK1   BANK2   BANK3   BANK4   BANK5   BANK6
  3130 ;;      Params:         0       0       0       0       0       0       0       0
  3131 ;;      Locals:         0       0       0       0       0       0       0       0
  3132 ;;      Temps:          0       0       0       0       0       0       0       0
  3133 ;;      Totals:         0       0       0       0       0       0       0       0
  3134 ;;Total ram usage:        0 bytes
  3135 ;; Hardware stack levels used:    1
  3136 ;; Hardware stack levels required when called:    4
  3137 ;; This function calls:
  3138 ;;		Nothing
  3139 ;; This function is called by:
  3140 ;;		_main
  3141 ;; This function uses a non-reentrant model
  3142 ;;
  3143                           
  3144                           
  3145                           ;psect for function _set_cwg
  3146  01D5                     _set_cwg:	
  3147  01D5                     l1745:	
  3148                           ;incstack = 0
  3149                           ; Regs used in _set_cwg: [wreg+status,2+status,0]
  3150                           
  3151                           
  3152                           ;main.c: 229: TRISCbits.TRISC1 = 1;
  3153  01D5  0020               	movlb	0	; select bank0
  3154  01D6  1493               	bsf	19,1	;volatile
  3155                           
  3156                           ;main.c: 230: TRISCbits.TRISC2 = 1;
  3157  01D7  1513               	bsf	19,2	;volatile
  3158                           
  3159                           ;main.c: 232: CWG1CON0bits.EN = 0;
  3160  01D8  002C               	movlb	12	; select bank12
  3161  01D9  1390               	bcf	16,7	;volatile
  3162  01DA                     l1747:	
  3163                           
  3164                           ;main.c: 233: CWG1CON0bits.CWG1MODE = 0b100;
  3165  01DA  0810               	movf	16,w	;volatile
  3166  01DB  39F8               	andlw	-8
  3167  01DC  3804               	iorlw	4
  3168  01DD  0090               	movwf	16	;volatile
  3169  01DE                     l1749:	
  3170                           
  3171                           ;main.c: 235: CWG1DBR = 0x0C;
  3172  01DE  300C               	movlw	12
  3173  01DF  008E               	movwf	14	;volatile
  3174  01E0                     l1751:	
  3175                           
  3176                           ;main.c: 236: CWG1DBF = 0x07;
  3177  01E0  3007               	movlw	7
  3178  01E1  008F               	movwf	15	;volatile
  3179  01E2                     l1753:	
  3180                           
  3181                           ;main.c: 239: CWG1AS0bits.REN = 0;
  3182  01E2  1312               	bcf	18,6	;volatile
  3183                           
  3184                           ;main.c: 240: CWG1AS0bits.LSAC = 0b10;
  3185  01E3  0812               	movf	18,w	;volatile
  3186  01E4  39F3               	andlw	-13
  3187  01E5  3808               	iorlw	8
  3188  01E6  0092               	movwf	18	;volatile
  3189                           
  3190                           ;main.c: 241: CWG1AS0bits.LSBD = 0b10;
  3191  01E7  0812               	movf	18,w	;volatile
  3192  01E8  39CF               	andlw	-49
  3193  01E9  3820               	iorlw	32
  3194  01EA  0092               	movwf	18	;volatile
  3195  01EB                     l1755:	
  3196                           
  3197                           ;main.c: 242: CWG1AS1bits.AS0E = 0;
  3198  01EB  1013               	bcf	19,0	;volatile
  3199  01EC                     l1757:	
  3200                           
  3201                           ;main.c: 245: CWG1CLKCONbits.CS = 0;
  3202  01EC  100C               	bcf	12,0	;volatile
  3203                           
  3204                           ;main.c: 246: CWG1ISMbits.IS = 0b0000;
  3205  01ED  30F0               	movlw	-16
  3206  01EE  058D               	andwf	13,f	;volatile
  3207  01EF                     l1759:	
  3208                           
  3209                           ;main.c: 249: TRISCbits.TRISC1 = 0;
  3210  01EF  0020               	movlb	0	; select bank0
  3211  01F0  1093               	bcf	19,1	;volatile
  3212  01F1                     l1761:	
  3213                           
  3214                           ;main.c: 250: TRISCbits.TRISC2 = 0;
  3215  01F1  1113               	bcf	19,2	;volatile
  3216  01F2                     l232:	
  3217  01F2  0008               	return
  3218  01F3                     __end_of_set_cwg:	
  3219                           
  3220                           	psect	text7
  3221  0241                     __ptext7:	
  3222 ;; *************** function _set_clc *****************
  3223 ;; Defined at:
  3224 ;;		line 253 in file "main.c"
  3225 ;; Parameters:    Size  Location     Type
  3226 ;;		None
  3227 ;; Auto vars:     Size  Location     Type
  3228 ;;		None
  3229 ;; Return value:  Size  Location     Type
  3230 ;;                  1    wreg      void 
  3231 ;; Registers used:
  3232 ;;		wreg, status,2, status,0
  3233 ;; Tracked objects:
  3234 ;;		On entry : 0/0
  3235 ;;		On exit  : 0/0
  3236 ;;		Unchanged: 0/0
  3237 ;; Data sizes:     COMMON   BANK0   BANK1   BANK2   BANK3   BANK4   BANK5   BANK6
  3238 ;;      Params:         0       0       0       0       0       0       0       0
  3239 ;;      Locals:         0       0       0       0       0       0       0       0
  3240 ;;      Temps:          0       0       0       0       0       0       0       0
  3241 ;;      Totals:         0       0       0       0       0       0       0       0
  3242 ;;Total ram usage:        0 bytes
  3243 ;; Hardware stack levels used:    1
  3244 ;; Hardware stack levels required when called:    4
  3245 ;; This function calls:
  3246 ;;		Nothing
  3247 ;; This function is called by:
  3248 ;;		_main
  3249 ;; This function uses a non-reentrant model
  3250 ;;
  3251                           
  3252                           
  3253                           ;psect for function _set_clc
  3254  0241                     _set_clc:	
  3255  0241                     l1763:	
  3256                           ;incstack = 0
  3257                           ; Regs used in _set_clc: [wreg+status,2+status,0]
  3258                           
  3259                           
  3260                           ;main.c: 254: CLC1CONbits.LC1EN = 0;
  3261  0241  003C               	movlb	28	; select bank28
  3262  0242  1390               	bcf	16,7	;volatile
  3263  0243                     l1765:	
  3264                           
  3265                           ;main.c: 257: CLC1SEL0bits.LC1D1S = 0b000011;
  3266  0243  3003               	movlw	3
  3267  0244  0092               	movwf	18	;volatile
  3268                           
  3269                           ;main.c: 258: CLC1SEL1bits.LC1D2S = 0b100100;
  3270  0245  3024               	movlw	36
  3271  0246  0093               	movwf	19	;volatile
  3272                           
  3273                           ;main.c: 259: CLC1SEL2bits.LC1D3S = 0b000010;
  3274  0247  3002               	movlw	2
  3275  0248  0094               	movwf	20	;volatile
  3276                           
  3277                           ;main.c: 260: CLC1SEL3bits.LC1D4S = 0b100101;
  3278  0249  3025               	movlw	37
  3279  024A  0095               	movwf	21	;volatile
  3280                           
  3281                           ;main.c: 262: CLC1GLS0 = 0x02;
  3282  024B  3002               	movlw	2
  3283  024C  0096               	movwf	22	;volatile
  3284  024D                     l1767:	
  3285                           
  3286                           ;main.c: 263: CLC1POLbits.LC1G1POL = 1;
  3287  024D  1411               	bsf	17,0	;volatile
  3288                           
  3289                           ;main.c: 264: CLC1GLS1 = 0x08;
  3290  024E  3008               	movlw	8
  3291  024F  0097               	movwf	23	;volatile
  3292  0250                     l1769:	
  3293                           
  3294                           ;main.c: 265: CLC1POLbits.LC1G2POL = 0;
  3295  0250  1091               	bcf	17,1	;volatile
  3296                           
  3297                           ;main.c: 266: CLC1GLS2 = 0x22;
  3298  0251  3022               	movlw	34
  3299  0252  0098               	movwf	24	;volatile
  3300  0253                     l1771:	
  3301                           
  3302                           ;main.c: 267: CLC1POLbits.LC1G3POL = 1;
  3303  0253  1511               	bsf	17,2	;volatile
  3304                           
  3305                           ;main.c: 268: CLC1GLS3 = 0x80;
  3306  0254  3080               	movlw	128
  3307  0255  0099               	movwf	25	;volatile
  3308  0256                     l1773:	
  3309                           
  3310                           ;main.c: 269: CLC1POLbits.LC1G4POL = 0;
  3311  0256  1191               	bcf	17,3	;volatile
  3312  0257                     l1775:	
  3313                           
  3314                           ;main.c: 271: CLC1CONbits.LC1MODE = 0b000;
  3315  0257  30F8               	movlw	-8
  3316  0258  0590               	andwf	16,f	;volatile
  3317  0259                     l235:	
  3318  0259  0008               	return
  3319  025A                     __end_of_set_clc:	
  3320                           
  3321                           	psect	text8
  3322  02E7                     __ptext8:	
  3323 ;; *************** function _init_port *****************
  3324 ;; Defined at:
  3325 ;;		line 163 in file "main.c"
  3326 ;; Parameters:    Size  Location     Type
  3327 ;;		None
  3328 ;; Auto vars:     Size  Location     Type
  3329 ;;		None
  3330 ;; Return value:  Size  Location     Type
  3331 ;;                  1    wreg      void 
  3332 ;; Registers used:
  3333 ;;		status,2
  3334 ;; Tracked objects:
  3335 ;;		On entry : 0/0
  3336 ;;		On exit  : 0/0
  3337 ;;		Unchanged: 0/0
  3338 ;; Data sizes:     COMMON   BANK0   BANK1   BANK2   BANK3   BANK4   BANK5   BANK6
  3339 ;;      Params:         0       0       0       0       0       0       0       0
  3340 ;;      Locals:         0       0       0       0       0       0       0       0
  3341 ;;      Temps:          0       0       0       0       0       0       0       0
  3342 ;;      Totals:         0       0       0       0       0       0       0       0
  3343 ;;Total ram usage:        0 bytes
  3344 ;; Hardware stack levels used:    1
  3345 ;; Hardware stack levels required when called:    4
  3346 ;; This function calls:
  3347 ;;		Nothing
  3348 ;; This function is called by:
  3349 ;;		_main
  3350 ;; This function uses a non-reentrant model
  3351 ;;
  3352                           
  3353                           
  3354                           ;psect for function _init_port
  3355  02E7                     _init_port:	
  3356  02E7                     l1705:	
  3357                           ;incstack = 0
  3358                           ; Regs used in _init_port: [status,2]
  3359                           
  3360                           
  3361                           ;main.c: 165: TRISBbits.TRISB4 = 1;
  3362  02E7  0020               	movlb	0	; select bank0
  3363  02E8  1612               	bsf	18,4	;volatile
  3364                           
  3365                           ;main.c: 166: ANSELBbits.ANSB4 = 0;
  3366  02E9  003E               	movlb	30	; select bank30
  3367  02EA  1243               	bcf	67,4	;volatile
  3368                           
  3369                           ;main.c: 168: TRISBbits.TRISB5 = 1;
  3370  02EB  0020               	movlb	0	; select bank0
  3371  02EC  1692               	bsf	18,5	;volatile
  3372                           
  3373                           ;main.c: 169: ANSELBbits.ANSB5 = 0;
  3374  02ED  003E               	movlb	30	; select bank30
  3375  02EE  12C3               	bcf	67,5	;volatile
  3376  02EF                     l1707:	
  3377                           
  3378                           ;main.c: 171: TRISC = 0;
  3379  02EF  0020               	movlb	0	; select bank0
  3380  02F0  0193               	clrf	19	;volatile
  3381                           
  3382                           ;main.c: 172: ANSELC = 0;
  3383  02F1  003E               	movlb	30	; select bank30
  3384  02F2  01CE               	clrf	78	;volatile
  3385  02F3                     l223:	
  3386  02F3  0008               	return
  3387  02F4                     __end_of_init_port:	
  3388                           
  3389                           	psect	text9
  3390  033C                     __ptext9:	
  3391 ;; *************** function _init_oc *****************
  3392 ;; Defined at:
  3393 ;;		line 145 in file "main.c"
  3394 ;; Parameters:    Size  Location     Type
  3395 ;;		None
  3396 ;; Auto vars:     Size  Location     Type
  3397 ;;		None
  3398 ;; Return value:  Size  Location     Type
  3399 ;;                  1    wreg      void 
  3400 ;; Registers used:
  3401 ;;		wreg, status,2, status,0
  3402 ;; Tracked objects:
  3403 ;;		On entry : 0/0
  3404 ;;		On exit  : 0/0
  3405 ;;		Unchanged: 0/0
  3406 ;; Data sizes:     COMMON   BANK0   BANK1   BANK2   BANK3   BANK4   BANK5   BANK6
  3407 ;;      Params:         0       0       0       0       0       0       0       0
  3408 ;;      Locals:         0       0       0       0       0       0       0       0
  3409 ;;      Temps:          0       0       0       0       0       0       0       0
  3410 ;;      Totals:         0       0       0       0       0       0       0       0
  3411 ;;Total ram usage:        0 bytes
  3412 ;; Hardware stack levels used:    1
  3413 ;; Hardware stack levels required when called:    4
  3414 ;; This function calls:
  3415 ;;		Nothing
  3416 ;; This function is called by:
  3417 ;;		_main
  3418 ;; This function uses a non-reentrant model
  3419 ;;
  3420                           
  3421                           
  3422                           ;psect for function _init_oc
  3423  033C                     _init_oc:	
  3424  033C                     l1703:	
  3425                           ;incstack = 0
  3426                           ; Regs used in _init_oc: [wreg+status,2+status,0]
  3427                           
  3428                           
  3429                           ;main.c: 146: OSCCON1bits.NOSC = 0b000;
  3430  033C  308F               	movlw	-113
  3431  033D  0031               	movlb	17	; select bank17
  3432  033E  058D               	andwf	13,f	;volatile
  3433                           
  3434                           ;main.c: 147: OSCCON1bits.NDIV = 0b0000;
  3435  033F  30F0               	movlw	-16
  3436  0340  058D               	andwf	13,f	;volatile
  3437                           
  3438                           ;main.c: 148: OSCFRQbits.HFFRQ = 0b0111;
  3439  0341  3007               	movlw	7
  3440  0342  0493               	iorwf	19,f	;volatile
  3441  0343                     l217:	
  3442  0343  0008               	return
  3443  0344                     __end_of_init_oc:	
  3444                           
  3445                           	psect	text10
  3446  01F3                     __ptext10:	
  3447 ;; *************** function _initHardware *****************
  3448 ;; Defined at:
  3449 ;;		line 12 in file "init.c"
  3450 ;; Parameters:    Size  Location     Type
  3451 ;;  isCenterBoar    2    0[BANK1 ] unsigned int 
  3452 ;;  iicAddr         1    2[BANK1 ] unsigned char 
  3453 ;; Auto vars:     Size  Location     Type
  3454 ;;		None
  3455 ;; Return value:  Size  Location     Type
  3456 ;;                  1    wreg      void 
  3457 ;; Registers used:
  3458 ;;		wreg, status,2, status,0, pclath, cstack
  3459 ;; Tracked objects:
  3460 ;;		On entry : 0/0
  3461 ;;		On exit  : 0/0
  3462 ;;		Unchanged: 0/0
  3463 ;; Data sizes:     COMMON   BANK0   BANK1   BANK2   BANK3   BANK4   BANK5   BANK6
  3464 ;;      Params:         0       0       3       0       0       0       0       0
  3465 ;;      Locals:         0       0       0       0       0       0       0       0
  3466 ;;      Temps:          0       0       0       0       0       0       0       0
  3467 ;;      Totals:         0       0       3       0       0       0       0       0
  3468 ;;Total ram usage:        3 bytes
  3469 ;; Hardware stack levels used:    1
  3470 ;; Hardware stack levels required when called:    5
  3471 ;; This function calls:
  3472 ;;		_initIICCenterMode
  3473 ;; This function is called by:
  3474 ;;		_main
  3475 ;; This function uses a non-reentrant model
  3476 ;;
  3477                           
  3478                           
  3479                           ;psect for function _initHardware
  3480  01F3                     _initHardware:	
  3481  01F3                     l1777:	
  3482                           ;incstack = 0
  3483                           ; Regs used in _initHardware: [wreg+status,2+status,0+pclath+cstack]
  3484                           
  3485                           
  3486                           ;init.c: 13: PORTA = 0;
  3487  01F3  0020               	movlb	0	; select bank0
  3488  01F4  018C               	clrf	12	;volatile
  3489                           
  3490                           ;init.c: 14: PORTB = 0;
  3491  01F5  018D               	clrf	13	;volatile
  3492                           
  3493                           ;init.c: 15: PORTC = 0;
  3494  01F6  018E               	clrf	14	;volatile
  3495                           
  3496                           ;init.c: 17: LATA = 0;
  3497  01F7  0196               	clrf	22	;volatile
  3498                           
  3499                           ;init.c: 18: LATB = 0;
  3500  01F8  0197               	clrf	23	;volatile
  3501                           
  3502                           ;init.c: 19: LATC = 0;
  3503  01F9  0198               	clrf	24	;volatile
  3504                           
  3505                           ;init.c: 21: ANSELA = 0;
  3506  01FA  003E               	movlb	30	; select bank30
  3507  01FB  01B8               	clrf	56	;volatile
  3508                           
  3509                           ;init.c: 22: ANSELB = 0;
  3510  01FC  01C3               	clrf	67	;volatile
  3511                           
  3512                           ;init.c: 24: TRISA = 0;
  3513  01FD  0020               	movlb	0	; select bank0
  3514  01FE  0191               	clrf	17	;volatile
  3515                           
  3516                           ;init.c: 25: TRISB = 0;
  3517  01FF  0192               	clrf	18	;volatile
  3518                           
  3519                           ;init.c: 26: TRISC = 0;
  3520  0200  0193               	clrf	19	;volatile
  3521  0201                     l1779:	
  3522                           
  3523                           ;init.c: 37: INTCONbits.PEIE = 1;
  3524  0201  170B               	bsf	11,6	;volatile
  3525  0202                     l1781:	
  3526                           
  3527                           ;init.c: 38: INTCONbits.GIE = 1;
  3528  0202  178B               	bsf	11,7	;volatile
  3529  0203                     l1783:	
  3530                           
  3531                           ;init.c: 40: if (isCenterBoard) {
  3532  0203  0021               	movlb	1	; select bank1
  3533  0204  0820               	movf	initHardware@isCenterBoard^(0+128),w
  3534  0205  0421               	iorwf	(initHardware@isCenterBoard+1)^(0+128),w
  3535  0206  1903               	btfsc	3,2
  3536  0207  2A09               	goto	u691
  3537  0208  2A0A               	goto	u690
  3538  0209                     u691:	
  3539  0209  2A0D               	goto	l312
  3540  020A                     u690:	
  3541  020A                     l1785:	
  3542                           
  3543                           ;init.c: 41: initIICCenterMode();
  3544  020A  3182  229D  3181   	fcall	_initIICCenterMode
  3545  020D                     l312:	
  3546  020D  0008               	return
  3547  020E                     __end_of_initHardware:	
  3548                           
  3549                           	psect	text11
  3550  029D                     __ptext11:	
  3551 ;; *************** function _initIICCenterMode *****************
  3552 ;; Defined at:
  3553 ;;		line 45 in file "init.c"
  3554 ;; Parameters:    Size  Location     Type
  3555 ;;		None
  3556 ;; Auto vars:     Size  Location     Type
  3557 ;;		None
  3558 ;; Return value:  Size  Location     Type
  3559 ;;                  1    wreg      void 
  3560 ;; Registers used:
  3561 ;;		wreg, status,2
  3562 ;; Tracked objects:
  3563 ;;		On entry : 0/0
  3564 ;;		On exit  : 0/0
  3565 ;;		Unchanged: 0/0
  3566 ;; Data sizes:     COMMON   BANK0   BANK1   BANK2   BANK3   BANK4   BANK5   BANK6
  3567 ;;      Params:         0       0       0       0       0       0       0       0
  3568 ;;      Locals:         0       0       0       0       0       0       0       0
  3569 ;;      Temps:          0       0       0       0       0       0       0       0
  3570 ;;      Totals:         0       0       0       0       0       0       0       0
  3571 ;;Total ram usage:        0 bytes
  3572 ;; Hardware stack levels used:    1
  3573 ;; Hardware stack levels required when called:    4
  3574 ;; This function calls:
  3575 ;;		Nothing
  3576 ;; This function is called by:
  3577 ;;		_initHardware
  3578 ;; This function uses a non-reentrant model
  3579 ;;
  3580                           
  3581                           
  3582                           ;psect for function _initIICCenterMode
  3583  029D                     _initIICCenterMode:	
  3584  029D                     l1685:	
  3585                           ;incstack = 0
  3586                           ; Regs used in _initIICCenterMode: [wreg+status,2]
  3587                           
  3588                           
  3589                           ;init.c: 48: TRISBbits.TRISB4 = 1;
  3590  029D  0020               	movlb	0	; select bank0
  3591  029E  1612               	bsf	18,4	;volatile
  3592                           
  3593                           ;init.c: 49: ANSELBbits.ANSB4 = 0;
  3594  029F  003E               	movlb	30	; select bank30
  3595  02A0  1243               	bcf	67,4	;volatile
  3596                           
  3597                           ;init.c: 51: TRISBbits.TRISB5 = 1;
  3598  02A1  0020               	movlb	0	; select bank0
  3599  02A2  1692               	bsf	18,5	;volatile
  3600                           
  3601                           ;init.c: 52: ANSELBbits.ANSB5 = 0;
  3602  02A3  003E               	movlb	30	; select bank30
  3603  02A4  12C3               	bcf	67,5	;volatile
  3604  02A5                     l1687:	
  3605                           
  3606                           ;init.c: 55: SSP2CON1 = 0;
  3607  02A5  0023               	movlb	3	; select bank3
  3608  02A6  019A               	clrf	26	;volatile
  3609  02A7                     l1689:	
  3610                           
  3611                           ;init.c: 58: SSP2CON1bits.SSPM0 = 0;
  3612  02A7  101A               	bcf	26,0	;volatile
  3613  02A8                     l1691:	
  3614                           
  3615                           ;init.c: 59: SSP2CON1bits.SSPM1 = 0;
  3616  02A8  109A               	bcf	26,1	;volatile
  3617  02A9                     l1693:	
  3618                           
  3619                           ;init.c: 60: SSP2CON1bits.SSPM2 = 0;
  3620  02A9  111A               	bcf	26,2	;volatile
  3621  02AA                     l1695:	
  3622                           
  3623                           ;init.c: 61: SSP2CON1bits.SSPM3 = 1;
  3624  02AA  159A               	bsf	26,3	;volatile
  3625  02AB                     l1697:	
  3626                           
  3627                           ;init.c: 64: SSP2ADD = 0x09;
  3628  02AB  3009               	movlw	9
  3629  02AC  0097               	movwf	23	;volatile
  3630  02AD                     l1699:	
  3631                           
  3632                           ;init.c: 67: SSP2CON1bits.SSPEN = 1;
  3633  02AD  169A               	bsf	26,5	;volatile
  3634  02AE                     l1701:	
  3635                           
  3636                           ;init.c: 69: SSP2CON2 = 0;
  3637  02AE  019B               	clrf	27	;volatile
  3638                           
  3639                           ;init.c: 70: SSP2STAT = 0x80;
  3640  02AF  3080               	movlw	128
  3641  02B0  0099               	movwf	25	;volatile
  3642  02B1                     l315:	
  3643  02B1  0008               	return
  3644  02B2                     __end_of_initIICCenterMode:	
  3645                           
  3646                           	psect	text12
  3647  02B2                     __ptext12:	
  3648 ;; *************** function _initADC *****************
  3649 ;; Defined at:
  3650 ;;		line 322 in file "main.c"
  3651 ;; Parameters:    Size  Location     Type
  3652 ;;		None
  3653 ;; Auto vars:     Size  Location     Type
  3654 ;;		None
  3655 ;; Return value:  Size  Location     Type
  3656 ;;                  1    wreg      void 
  3657 ;; Registers used:
  3658 ;;		wreg, status,2, status,0
  3659 ;; Tracked objects:
  3660 ;;		On entry : 0/0
  3661 ;;		On exit  : 0/0
  3662 ;;		Unchanged: 0/0
  3663 ;; Data sizes:     COMMON   BANK0   BANK1   BANK2   BANK3   BANK4   BANK5   BANK6
  3664 ;;      Params:         0       0       0       0       0       0       0       0
  3665 ;;      Locals:         0       0       0       0       0       0       0       0
  3666 ;;      Temps:          0       0       0       0       0       0       0       0
  3667 ;;      Totals:         0       0       0       0       0       0       0       0
  3668 ;;Total ram usage:        0 bytes
  3669 ;; Hardware stack levels used:    1
  3670 ;; Hardware stack levels required when called:    4
  3671 ;; This function calls:
  3672 ;;		Nothing
  3673 ;; This function is called by:
  3674 ;;		_main
  3675 ;; This function uses a non-reentrant model
  3676 ;;
  3677                           
  3678                           
  3679                           ;psect for function _initADC
  3680  02B2                     _initADC:	
  3681  02B2                     l1709:	
  3682                           ;incstack = 0
  3683                           ; Regs used in _initADC: [wreg+status,2+status,0]
  3684                           
  3685                           
  3686                           ;main.c: 325: TRISA = 0b11111111;
  3687  02B2  30FF               	movlw	255
  3688  02B3  0020               	movlb	0	; select bank0
  3689  02B4  0091               	movwf	17	;volatile
  3690                           
  3691                           ;main.c: 326: ANSELA = 0b11111111;
  3692  02B5  30FF               	movlw	255
  3693  02B6  003E               	movlb	30	; select bank30
  3694  02B7  00B8               	movwf	56	;volatile
  3695                           
  3696                           ;main.c: 332: ADCON0 = 0b10000000;
  3697  02B8  3080               	movlw	128
  3698  02B9  0021               	movlb	1	; select bank1
  3699  02BA  0093               	movwf	19	;volatile
  3700                           
  3701                           ;main.c: 333: ADCON1 = 0b11110000;
  3702  02BB  30F0               	movlw	240
  3703  02BC  0094               	movwf	20	;volatile
  3704                           
  3705                           ;main.c: 334: ADCON2 = 0b00001111;
  3706  02BD  300F               	movlw	15
  3707  02BE  0095               	movwf	21	;volatile
  3708                           
  3709                           ;main.c: 339: ADCLK = 0B00000001;
  3710  02BF  3001               	movlw	1
  3711  02C0  0098               	movwf	24	;volatile
  3712                           
  3713                           ;main.c: 342: ADPCH = 0b00000001;
  3714  02C1  3001               	movlw	1
  3715  02C2  009E               	movwf	30	;volatile
  3716  02C3                     l1711:	
  3717                           
  3718                           ;main.c: 344: ADREFbits.ADNREF = 0;
  3719  02C3  121A               	bcf	26,4	;volatile
  3720  02C4                     l1713:	
  3721                           
  3722                           ;main.c: 345: ADREFbits.ADPREF = 0;
  3723  02C4  30FC               	movlw	-4
  3724  02C5  059A               	andwf	26,f	;volatile
  3725  02C6                     l262:	
  3726  02C6  0008               	return
  3727  02C7                     __end_of_initADC:	
  3728                           
  3729                           	psect	intentry
  3730  0004                     __pintentry:	
  3731 ;; *************** function _irs_routine *****************
  3732 ;; Defined at:
  3733 ;;		line 56 in file "main.c"
  3734 ;; Parameters:    Size  Location     Type
  3735 ;;		None
  3736 ;; Auto vars:     Size  Location     Type
  3737 ;;		None
  3738 ;; Return value:  Size  Location     Type
  3739 ;;                  1    wreg      void 
  3740 ;; Registers used:
  3741 ;;		wreg, fsr1l, fsr1h, status,2, status,0, pclath, cstack
  3742 ;; Tracked objects:
  3743 ;;		On entry : 0/0
  3744 ;;		On exit  : 0/0
  3745 ;;		Unchanged: 0/0
  3746 ;; Data sizes:     COMMON   BANK0   BANK1   BANK2   BANK3   BANK4   BANK5   BANK6
  3747 ;;      Params:         0       0       0       0       0       0       0       0
  3748 ;;      Locals:         0       0       0       0       0       0       0       0
  3749 ;;      Temps:          0       2       0       0       0       0       0       0
  3750 ;;      Totals:         0       2       0       0       0       0       0       0
  3751 ;;Total ram usage:        2 bytes
  3752 ;; Hardware stack levels used:    1
  3753 ;; Hardware stack levels required when called:    3
  3754 ;; This function calls:
  3755 ;;		_centerWriteToPeripheral
  3756 ;;		_lightIntrpt
  3757 ;;		_lightup
  3758 ;; This function is called by:
  3759 ;;		Interrupt level 1
  3760 ;; This function uses a non-reentrant model
  3761 ;;
  3762                           
  3763  0004                     _irs_routine:	
  3764                           
  3765                           ;incstack = 0
  3766  0004  147E               	bsf	int$flags,0	;set compiler interrupt flag (level 1)
  3767                           
  3768                           ; Regs used in _irs_routine: [wreg+fsr1l+fsr1h+status,2+status,0+pclath+cstack]
  3769  0005  3180               	pagesel	$
  3770  0006                     i1l1595:	
  3771                           
  3772                           ;main.c: 57: lightIntrpt();
  3773  0006  3182  225A  3180   	fcall	_lightIntrpt
  3774  0009                     i1l1597:	
  3775                           
  3776                           ;main.c: 58: if(PIR1bits.ADIF == 1){
  3777  0009  002E               	movlb	14	; select bank14
  3778  000A  1C0D               	btfss	13,0	;volatile
  3779  000B  280D               	goto	u59_21
  3780  000C  280E               	goto	u59_20
  3781  000D                     u59_21:	
  3782  000D  2868               	goto	i1l181
  3783  000E                     u59_20:	
  3784  000E                     i1l1599:	
  3785                           
  3786                           ;main.c: 59: PIR1bits.ADIF = 0;
  3787  000E  100D               	bcf	13,0	;volatile
  3788  000F                     i1l1601:	
  3789                           
  3790                           ;main.c: 61: ARR[ADPCH] = ADRESH;
  3791  000F  0021               	movlb	1	; select bank1
  3792  0010  080D               	movf	13,w	;volatile
  3793  0011  0020               	movlb	0	; select bank0
  3794  0012  00E2               	movwf	??_irs_routine
  3795  0013  01E3               	clrf	??_irs_routine+1
  3796  0014  0021               	movlb	1	; select bank1
  3797  0015  351E               	lslf	30,w	;volatile
  3798  0016  3E20               	addlw	(low (_ARR| 0))& (0+255)
  3799  0017  0086               	movwf	6
  3800  0018  0187               	clrf	7
  3801  0019  0020               	movlb	0	; select bank0
  3802  001A  0862               	movf	??_irs_routine,w
  3803  001B  3FC0               	movwi [0]fsr1
  3804  001C  0863               	movf	??_irs_routine+1,w
  3805  001D  3FC1               	movwi [1]fsr1
  3806  001E                     i1l1603:	
  3807                           
  3808                           ;main.c: 62: if(ADRESH < min) {
  3809  001E  0851               	movf	_min+1,w
  3810  001F  3A80               	xorlw	128
  3811  0020  3C80               	sublw	128
  3812  0021  1D03               	skipz
  3813  0022  2826               	goto	u60_25
  3814  0023  0850               	movf	_min,w
  3815  0024  0021               	movlb	1	; select bank1
  3816  0025  020D               	subwf	13,w	;volatile
  3817  0026                     u60_25:	
  3818  0026  1803               	skipnc
  3819  0027  2829               	goto	u60_21
  3820  0028  282A               	goto	u60_20
  3821  0029                     u60_21:	
  3822  0029  283C               	goto	i1l1607
  3823  002A                     u60_20:	
  3824  002A                     i1l1605:	
  3825                           
  3826                           ;main.c: 63: min = ADRESH;
  3827  002A  0021               	movlb	1	; select bank1
  3828  002B  080D               	movf	13,w	;volatile
  3829  002C  0020               	movlb	0	; select bank0
  3830  002D  00E2               	movwf	??_irs_routine
  3831  002E  01E3               	clrf	??_irs_routine+1
  3832  002F  0862               	movf	??_irs_routine,w
  3833  0030  00D0               	movwf	_min
  3834  0031  0863               	movf	??_irs_routine+1,w
  3835  0032  00D1               	movwf	_min+1
  3836                           
  3837                           ;main.c: 64: index = ADPCH;
  3838  0033  0021               	movlb	1	; select bank1
  3839  0034  081E               	movf	30,w	;volatile
  3840  0035  0020               	movlb	0	; select bank0
  3841  0036  00E2               	movwf	??_irs_routine
  3842  0037  01E3               	clrf	??_irs_routine+1
  3843  0038  0862               	movf	??_irs_routine,w
  3844  0039  00B4               	movwf	_index
  3845  003A  0863               	movf	??_irs_routine+1,w
  3846  003B  00B5               	movwf	_index+1
  3847  003C                     i1l1607:	
  3848                           
  3849                           ;main.c: 65: };main.c: 66: if(++ADPCH >= 0b00001010){
  3850  003C  3001               	movlw	1
  3851  003D  0020               	movlb	0	; select bank0
  3852  003E  00E2               	movwf	??_irs_routine
  3853  003F  0862               	movf	??_irs_routine,w
  3854  0040  0021               	movlb	1	; select bank1
  3855  0041  079E               	addwf	30,f	;volatile
  3856  0042  300A               	movlw	10
  3857  0043  021E               	subwf	30,w	;volatile
  3858  0044  1C03               	skipc
  3859  0045  2847               	goto	u61_21
  3860  0046  2848               	goto	u61_20
  3861  0047                     u61_21:	
  3862  0047  2868               	goto	i1l181
  3863  0048                     u61_20:	
  3864  0048                     i1l1609:	
  3865                           
  3866                           ;main.c: 68: if(min < 0x70) {
  3867  0048  0020               	movlb	0	; select bank0
  3868  0049  0851               	movf	_min+1,w
  3869  004A  3A80               	xorlw	128
  3870  004B  00E2               	movwf	??_irs_routine
  3871  004C  3080               	movlw	128
  3872  004D  0262               	subwf	??_irs_routine,w
  3873  004E  1D03               	skipz
  3874  004F  2852               	goto	u62_25
  3875  0050  3070               	movlw	112
  3876  0051  0250               	subwf	_min,w
  3877  0052                     u62_25:	
  3878  0052  1803               	skipnc
  3879  0053  2855               	goto	u62_21
  3880  0054  2856               	goto	u62_20
  3881  0055                     u62_21:	
  3882  0055  2866               	goto	i1l1617
  3883  0056                     u62_20:	
  3884  0056                     i1l1611:	
  3885                           
  3886                           ;main.c: 69: lightup();
  3887  0056  3180  2084  3180   	fcall	_lightup
  3888  0059                     i1l1613:	
  3889                           
  3890                           ;main.c: 70: min = 0xff;
  3891  0059  30FF               	movlw	255
  3892  005A  0020               	movlb	0	; select bank0
  3893  005B  00D0               	movwf	_min
  3894  005C  3000               	movlw	0
  3895  005D  00D1               	movwf	_min+1
  3896  005E                     i1l1615:	
  3897                           
  3898                           ;main.c: 72: centerWriteToPeripheral(peripheralAddr, index);
  3899  005E  0834               	movf	_index,w
  3900  005F  00E2               	movwf	??_irs_routine
  3901  0060  0862               	movf	??_irs_routine,w
  3902  0061  00F1               	movwf	centerWriteToPeripheral@data
  3903  0062  0854               	movf	_peripheralAddr,w
  3904  0063  3182  22D7  3180   	fcall	_centerWriteToPeripheral
  3905  0066                     i1l1617:	
  3906                           
  3907                           ;main.c: 73: };main.c: 74: ADPCH = 0;
  3908  0066  0021               	movlb	1	; select bank1
  3909  0067  019E               	clrf	30	;volatile
  3910  0068                     i1l181:	
  3911  0068  107E               	bcf	int$flags,0	;clear compiler interrupt flag (level 1)
  3912  0069  0009               	retfie
  3913  006A                     __end_of_irs_routine:	
  3914                           
  3915                           	psect	text14
  3916  0084                     __ptext14:	
  3917 ;; *************** function _lightup *****************
  3918 ;; Defined at:
  3919 ;;		line 112 in file "main.c"
  3920 ;; Parameters:    Size  Location     Type
  3921 ;;		None
  3922 ;; Auto vars:     Size  Location     Type
  3923 ;;  B               2    6[BANK0 ] int 
  3924 ;;  G               2    4[BANK0 ] int 
  3925 ;;  R               2    2[BANK0 ] int 
  3926 ;;  led_addr        2   10[BANK0 ] int 
  3927 ;;  i               2    8[BANK0 ] int 
  3928 ;;  count           2    0[BANK0 ] int 
  3929 ;;  led_val         1   12[BANK0 ] unsigned char 
  3930 ;; Return value:  Size  Location     Type
  3931 ;;                  1    wreg      void 
  3932 ;; Registers used:
  3933 ;;		wreg, fsr1l, fsr1h, status,2, status,0, pclath, cstack
  3934 ;; Tracked objects:
  3935 ;;		On entry : 0/0
  3936 ;;		On exit  : 0/0
  3937 ;;		Unchanged: 0/0
  3938 ;; Data sizes:     COMMON   BANK0   BANK1   BANK2   BANK3   BANK4   BANK5   BANK6
  3939 ;;      Params:         0       0       0       0       0       0       0       0
  3940 ;;      Locals:         0      13       0       0       0       0       0       0
  3941 ;;      Temps:          3       0       0       0       0       0       0       0
  3942 ;;      Totals:         3      13       0       0       0       0       0       0
  3943 ;;Total ram usage:       16 bytes
  3944 ;; Hardware stack levels used:    1
  3945 ;; Hardware stack levels required when called:    2
  3946 ;; This function calls:
  3947 ;;		_disable_out
  3948 ;;		_enable_out
  3949 ;;		_out_reset
  3950 ;;		_turn_off_all
  3951 ;; This function is called by:
  3952 ;;		_irs_routine
  3953 ;; This function uses a non-reentrant model
  3954 ;;
  3955                           
  3956                           
  3957                           ;psect for function _lightup
  3958  0084                     _lightup:	
  3959  0084                     i1l1449:	
  3960                           ;incstack = 0
  3961                           ; Regs used in _lightup: [wreg+fsr1l+fsr1h+status,2+status,0+pclath+cstack]
  3962                           
  3963                           
  3964                           ;main.c: 113: int led_addr = -1;
  3965  0084  30FF               	movlw	255
  3966  0085  0020               	movlb	0	; select bank0
  3967  0086  00DF               	movwf	lightup@led_addr
  3968  0087  30FF               	movlw	255
  3969  0088  00E0               	movwf	lightup@led_addr+1
  3970  0089                     i1l1451:	
  3971                           
  3972                           ;main.c: 114: unsigned char led_val;;main.c: 115: int i = 0;
  3973  0089  01DD               	clrf	lightup@i
  3974  008A  01DE               	clrf	lightup@i+1
  3975  008B                     i1l1453:	
  3976                           
  3977                           ;main.c: 118: enable_out();
  3978  008B  3183  232A  3180   	fcall	_enable_out
  3979  008E                     i1l1455:	
  3980                           
  3981                           ;main.c: 119: out_reset();
  3982  008E  3183  2320  3180   	fcall	_out_reset
  3983  0091                     i1l1457:	
  3984                           
  3985                           ;main.c: 121: int count = 200;
  3986  0091  30C8               	movlw	200
  3987  0092  0020               	movlb	0	; select bank0
  3988  0093  00D5               	movwf	lightup@count
  3989  0094  3000               	movlw	0
  3990  0095  00D6               	movwf	lightup@count+1
  3991                           
  3992                           ;main.c: 122: while (count--) {
  3993  0096  2923               	goto	i1l1487
  3994  0097                     i1l1459:	
  3995                           
  3996                           ;main.c: 123: if (++led_addr == 16) {
  3997  0097  3001               	movlw	1
  3998  0098  07DF               	addwf	lightup@led_addr,f
  3999  0099  3000               	movlw	0
  4000  009A  3DE0               	addwfc	lightup@led_addr+1,f
  4001  009B  3010               	movlw	16
  4002  009C  065F               	xorwf	lightup@led_addr,w
  4003  009D  0460               	iorwf	lightup@led_addr+1,w
  4004  009E  1D03               	btfss	3,2
  4005  009F  28A1               	goto	u48_21
  4006  00A0  28A2               	goto	u48_20
  4007  00A1                     u48_21:	
  4008  00A1  28A4               	goto	i1l1463
  4009  00A2                     u48_20:	
  4010  00A2                     i1l1461:	
  4011                           
  4012                           ;main.c: 124: led_addr = 0;
  4013  00A2  01DF               	clrf	lightup@led_addr
  4014  00A3  01E0               	clrf	lightup@led_addr+1
  4015  00A4                     i1l1463:	
  4016                           
  4017                           ;main.c: 125: };main.c: 126: led_val = led_arr[led_addr];
  4018  00A4  085F               	movf	lightup@led_addr,w
  4019  00A5  3E40               	addlw	(low (_led_arr| 0))& (0+255)
  4020  00A6  0086               	movwf	6
  4021  00A7  0187               	clrf	7
  4022  00A8  0801               	movf	1,w
  4023  00A9  00FB               	movwf	??_lightup
  4024  00AA  087B               	movf	??_lightup,w
  4025  00AB  00E1               	movwf	lightup@led_val
  4026  00AC                     i1l1465:	
  4027                           
  4028                           ;main.c: 127: int R = ((led_val >> 2) & 0x03) << 4;
  4029  00AC  0861               	movf	lightup@led_val,w
  4030  00AD  00FB               	movwf	??_lightup
  4031  00AE  3002               	movlw	2
  4032  00AF                     u49_25:	
  4033  00AF  36FB               	lsrf	??_lightup,f
  4034  00B0  0B89               	decfsz	9,f
  4035  00B1  28AF               	goto	u49_25
  4036  00B2  087B               	movf	??_lightup,w
  4037  00B3  3903               	andlw	3
  4038  00B4  00FC               	movwf	??_lightup+1
  4039  00B5  01FD               	clrf	??_lightup+2
  4040  00B6  0EFC               	swapf	??_lightup+1,f
  4041  00B7  0EFD               	swapf	??_lightup+2,f
  4042  00B8  30F0               	movlw	240
  4043  00B9  05FD               	andwf	??_lightup+2,f
  4044  00BA  087C               	movf	??_lightup+1,w
  4045  00BB  390F               	andlw	15
  4046  00BC  04FD               	iorwf	??_lightup+2,f
  4047  00BD  30F0               	movlw	240
  4048  00BE  05FC               	andwf	??_lightup+1,f
  4049  00BF  087C               	movf	??_lightup+1,w
  4050  00C0  00D7               	movwf	lightup@R
  4051  00C1  087D               	movf	??_lightup+2,w
  4052  00C2  00D8               	movwf	lightup@R+1
  4053  00C3                     i1l1467:	
  4054                           
  4055                           ;main.c: 128: int G = ((led_val >> 4) & 0x03) << 4;
  4056  00C3  0861               	movf	lightup@led_val,w
  4057  00C4  00FB               	movwf	??_lightup
  4058  00C5  3004               	movlw	4
  4059  00C6                     u50_25:	
  4060  00C6  36FB               	lsrf	??_lightup,f
  4061  00C7  0B89               	decfsz	9,f
  4062  00C8  28C6               	goto	u50_25
  4063  00C9  087B               	movf	??_lightup,w
  4064  00CA  3903               	andlw	3
  4065  00CB  00FC               	movwf	??_lightup+1
  4066  00CC  01FD               	clrf	??_lightup+2
  4067  00CD  0EFC               	swapf	??_lightup+1,f
  4068  00CE  0EFD               	swapf	??_lightup+2,f
  4069  00CF  30F0               	movlw	240
  4070  00D0  05FD               	andwf	??_lightup+2,f
  4071  00D1  087C               	movf	??_lightup+1,w
  4072  00D2  390F               	andlw	15
  4073  00D3  04FD               	iorwf	??_lightup+2,f
  4074  00D4  30F0               	movlw	240
  4075  00D5  05FC               	andwf	??_lightup+1,f
  4076  00D6  087C               	movf	??_lightup+1,w
  4077  00D7  00D9               	movwf	lightup@G
  4078  00D8  087D               	movf	??_lightup+2,w
  4079  00D9  00DA               	movwf	lightup@G+1
  4080  00DA                     i1l1469:	
  4081                           
  4082                           ;main.c: 129: int B = ((led_val >> 6) & 0x03) << 4;
  4083  00DA  0861               	movf	lightup@led_val,w
  4084  00DB  00FB               	movwf	??_lightup
  4085  00DC  3006               	movlw	6
  4086  00DD                     u51_25:	
  4087  00DD  36FB               	lsrf	??_lightup,f
  4088  00DE  0B89               	decfsz	9,f
  4089  00DF  28DD               	goto	u51_25
  4090  00E0  087B               	movf	??_lightup,w
  4091  00E1  3903               	andlw	3
  4092  00E2  00FC               	movwf	??_lightup+1
  4093  00E3  01FD               	clrf	??_lightup+2
  4094  00E4  0EFC               	swapf	??_lightup+1,f
  4095  00E5  0EFD               	swapf	??_lightup+2,f
  4096  00E6  30F0               	movlw	240
  4097  00E7  05FD               	andwf	??_lightup+2,f
  4098  00E8  087C               	movf	??_lightup+1,w
  4099  00E9  390F               	andlw	15
  4100  00EA  04FD               	iorwf	??_lightup+2,f
  4101  00EB  30F0               	movlw	240
  4102  00EC  05FC               	andwf	??_lightup+1,f
  4103  00ED  087C               	movf	??_lightup+1,w
  4104  00EE  00DB               	movwf	lightup@B
  4105  00EF  087D               	movf	??_lightup+2,w
  4106  00F0  00DC               	movwf	lightup@B+1
  4107  00F1                     i1l202:	
  4108  00F1  002E               	movlb	14	; select bank14
  4109  00F2  1E0F               	btfss	15,4	;volatile
  4110  00F3  28F5               	goto	u52_21
  4111  00F4  28F6               	goto	u52_20
  4112  00F5                     u52_21:	
  4113  00F5  28F1               	goto	i1l202
  4114  00F6                     u52_20:	
  4115  00F6                     i1l1471:	
  4116  00F6  0020               	movlb	0	; select bank0
  4117  00F7  0859               	movf	lightup@G,w
  4118  00F8  0022               	movlb	2	; select bank2
  4119  00F9  009A               	movwf	26	;volatile
  4120  00FA                     i1l205:	
  4121  00FA  002E               	movlb	14	; select bank14
  4122  00FB  1E0F               	btfss	15,4	;volatile
  4123  00FC  28FE               	goto	u53_21
  4124  00FD  28FF               	goto	u53_20
  4125  00FE                     u53_21:	
  4126  00FE  28FA               	goto	i1l205
  4127  00FF                     u53_20:	
  4128  00FF                     i1l1473:	
  4129  00FF  0020               	movlb	0	; select bank0
  4130  0100  0857               	movf	lightup@R,w
  4131  0101  0022               	movlb	2	; select bank2
  4132  0102  009A               	movwf	26	;volatile
  4133  0103                     i1l208:	
  4134  0103  002E               	movlb	14	; select bank14
  4135  0104  1E0F               	btfss	15,4	;volatile
  4136  0105  2907               	goto	u54_21
  4137  0106  2908               	goto	u54_20
  4138  0107                     u54_21:	
  4139  0107  2903               	goto	i1l208
  4140  0108                     u54_20:	
  4141  0108                     i1l1475:	
  4142  0108  0020               	movlb	0	; select bank0
  4143  0109  085B               	movf	lightup@B,w
  4144  010A  0022               	movlb	2	; select bank2
  4145  010B  009A               	movwf	26	;volatile
  4146  010C                     i1l1477:	
  4147                           
  4148                           ;main.c: 133: if (++i == 16) {
  4149  010C  3001               	movlw	1
  4150  010D  0020               	movlb	0	; select bank0
  4151  010E  07DD               	addwf	lightup@i,f
  4152  010F  3000               	movlw	0
  4153  0110  3DDE               	addwfc	lightup@i+1,f
  4154  0111  3010               	movlw	16
  4155  0112  065D               	xorwf	lightup@i,w
  4156  0113  045E               	iorwf	lightup@i+1,w
  4157  0114  1D03               	btfss	3,2
  4158  0115  2917               	goto	u55_21
  4159  0116  2918               	goto	u55_20
  4160  0117                     u55_21:	
  4161  0117  2923               	goto	i1l1487
  4162  0118                     u55_20:	
  4163  0118                     i1l1479:	
  4164                           
  4165                           ;main.c: 134: i = 0;
  4166  0118  01DD               	clrf	lightup@i
  4167  0119  01DE               	clrf	lightup@i+1
  4168  011A                     i1l1481:	
  4169                           
  4170                           ;main.c: 135: disable_out();
  4171  011A  3182  22C7  3180   	fcall	_disable_out
  4172  011D                     i1l1483:	
  4173                           
  4174                           ;main.c: 136: enable_out();
  4175  011D  3183  232A  3180   	fcall	_enable_out
  4176  0120                     i1l1485:	
  4177                           
  4178                           ;main.c: 137: out_reset();
  4179  0120  3183  2320  3180   	fcall	_out_reset
  4180  0123                     i1l1487:	
  4181  0123  30FF               	movlw	255
  4182  0124  0020               	movlb	0	; select bank0
  4183  0125  07D5               	addwf	lightup@count,f
  4184  0126  30FF               	movlw	255
  4185  0127  3DD6               	addwfc	lightup@count+1,f
  4186  0128  0A55               	incf	lightup@count,w
  4187  0129  1D03               	skipz
  4188  012A  292F               	goto	u56_21
  4189  012B  0A56               	incf	lightup@count+1,w
  4190  012C  1D03               	btfss	3,2
  4191  012D  292F               	goto	u56_21
  4192  012E  2930               	goto	u56_20
  4193  012F                     u56_21:	
  4194  012F  2897               	goto	i1l1459
  4195  0130                     u56_20:	
  4196  0130                     i1l1489:	
  4197                           
  4198                           ;main.c: 138: };main.c: 139: };main.c: 140: turn_off_all(16);
  4199  0130  3010               	movlw	16
  4200  0131  00F6               	movwf	turn_off_all@num
  4201  0132  3000               	movlw	0
  4202  0133  00F7               	movwf	turn_off_all@num+1
  4203  0134  3181  216A  3180   	fcall	_turn_off_all
  4204                           
  4205                           ;main.c: 141: disable_out();
  4206  0137  3182  22C7  3180   	fcall	_disable_out
  4207  013A                     i1l214:	
  4208  013A  0008               	return
  4209  013B                     __end_of_lightup:	
  4210                           
  4211                           	psect	text15
  4212  016A                     __ptext15:	
  4213 ;; *************** function _turn_off_all *****************
  4214 ;; Defined at:
  4215 ;;		line 313 in file "main.c"
  4216 ;; Parameters:    Size  Location     Type
  4217 ;;  num             2    6[COMMON] int 
  4218 ;; Auto vars:     Size  Location     Type
  4219 ;;  i               2    9[COMMON] int 
  4220 ;; Return value:  Size  Location     Type
  4221 ;;                  1    wreg      void 
  4222 ;; Registers used:
  4223 ;;		wreg, status,2, status,0, pclath, cstack
  4224 ;; Tracked objects:
  4225 ;;		On entry : 0/0
  4226 ;;		On exit  : 0/0
  4227 ;;		Unchanged: 0/0
  4228 ;; Data sizes:     COMMON   BANK0   BANK1   BANK2   BANK3   BANK4   BANK5   BANK6
  4229 ;;      Params:         2       0       0       0       0       0       0       0
  4230 ;;      Locals:         2       0       0       0       0       0       0       0
  4231 ;;      Temps:          1       0       0       0       0       0       0       0
  4232 ;;      Totals:         5       0       0       0       0       0       0       0
  4233 ;;Total ram usage:        5 bytes
  4234 ;; Hardware stack levels used:    1
  4235 ;; Hardware stack levels required when called:    1
  4236 ;; This function calls:
  4237 ;;		___wmul
  4238 ;; This function is called by:
  4239 ;;		_lightup
  4240 ;; This function uses a non-reentrant model
  4241 ;;
  4242                           
  4243                           
  4244                           ;psect for function _turn_off_all
  4245  016A                     _turn_off_all:	
  4246  016A                     i1l1399:	
  4247                           ;incstack = 0
  4248                           ; Regs used in _turn_off_all: [wreg+status,2+status,0+pclath+cstack]
  4249                           
  4250                           
  4251                           ;main.c: 314: int i = num * 3;
  4252  016A  0877               	movf	turn_off_all@num+1,w
  4253  016B  00F1               	movwf	___wmul@multiplier+1
  4254  016C  0876               	movf	turn_off_all@num,w
  4255  016D  00F0               	movwf	___wmul@multiplier
  4256  016E  3003               	movlw	3
  4257  016F  00F2               	movwf	___wmul@multiplicand
  4258  0170  3000               	movlw	0
  4259  0171  00F3               	movwf	___wmul@multiplicand+1
  4260  0172  3181  21B6  3181   	fcall	___wmul
  4261  0175  0871               	movf	?___wmul+1,w
  4262  0176  00FA               	movwf	turn_off_all@i+1
  4263  0177  0870               	movf	?___wmul,w
  4264  0178  00F9               	movwf	turn_off_all@i
  4265                           
  4266                           ;main.c: 315: while (i > 0) {
  4267  0179  2985               	goto	i1l1405
  4268  017A                     i1l255:	
  4269  017A  002E               	movlb	14	; select bank14
  4270  017B  1E0F               	btfss	15,4	;volatile
  4271  017C  297E               	goto	u40_21
  4272  017D  297F               	goto	u40_20
  4273  017E                     u40_21:	
  4274  017E  297A               	goto	i1l255
  4275  017F                     u40_20:	
  4276  017F                     i1l1401:	
  4277                           
  4278                           ;main.c: 317: TX1REG = 0x00;
  4279  017F  0022               	movlb	2	; select bank2
  4280  0180  019A               	clrf	26	;volatile
  4281  0181                     i1l1403:	
  4282                           
  4283                           ;main.c: 318: --i;
  4284  0181  30FF               	movlw	255
  4285  0182  07F9               	addwf	turn_off_all@i,f
  4286  0183  30FF               	movlw	255
  4287  0184  3DFA               	addwfc	turn_off_all@i+1,f
  4288  0185                     i1l1405:	
  4289  0185  087A               	movf	turn_off_all@i+1,w
  4290  0186  3A80               	xorlw	128
  4291  0187  00F8               	movwf	??_turn_off_all
  4292  0188  3080               	movlw	128
  4293  0189  0278               	subwf	??_turn_off_all,w
  4294  018A  1D03               	skipz
  4295  018B  298E               	goto	u41_25
  4296  018C  3001               	movlw	1
  4297  018D  0279               	subwf	turn_off_all@i,w
  4298  018E                     u41_25:	
  4299  018E  1803               	skipnc
  4300  018F  2991               	goto	u41_21
  4301  0190  2992               	goto	u41_20
  4302  0191                     u41_21:	
  4303  0191  297A               	goto	i1l255
  4304  0192                     u41_20:	
  4305  0192                     i1l259:	
  4306  0192  0008               	return
  4307  0193                     __end_of_turn_off_all:	
  4308                           
  4309                           	psect	text16
  4310  01B6                     __ptext16:	
  4311 ;; *************** function ___wmul *****************
  4312 ;; Defined at:
  4313 ;;		line 15 in file "C:\Program Files (x86)\Microchip\xc8\v2.10\pic\sources\c90\common\Umul16.c"
  4314 ;; Parameters:    Size  Location     Type
  4315 ;;  multiplier      2    0[COMMON] unsigned int 
  4316 ;;  multiplicand    2    2[COMMON] unsigned int 
  4317 ;; Auto vars:     Size  Location     Type
  4318 ;;  product         2    4[COMMON] unsigned int 
  4319 ;; Return value:  Size  Location     Type
  4320 ;;                  2    0[COMMON] unsigned int 
  4321 ;; Registers used:
  4322 ;;		wreg, status,2, status,0
  4323 ;; Tracked objects:
  4324 ;;		On entry : 0/0
  4325 ;;		On exit  : 0/0
  4326 ;;		Unchanged: 0/0
  4327 ;; Data sizes:     COMMON   BANK0   BANK1   BANK2   BANK3   BANK4   BANK5   BANK6
  4328 ;;      Params:         4       0       0       0       0       0       0       0
  4329 ;;      Locals:         2       0       0       0       0       0       0       0
  4330 ;;      Temps:          0       0       0       0       0       0       0       0
  4331 ;;      Totals:         6       0       0       0       0       0       0       0
  4332 ;;Total ram usage:        6 bytes
  4333 ;; Hardware stack levels used:    1
  4334 ;; This function calls:
  4335 ;;		Nothing
  4336 ;; This function is called by:
  4337 ;;		_turn_off_all
  4338 ;; This function uses a non-reentrant model
  4339 ;;
  4340                           
  4341                           
  4342                           ;psect for function ___wmul
  4343  01B6                     ___wmul:	
  4344  01B6                     i1l1363:	
  4345                           ;incstack = 0
  4346                           ; Regs used in ___wmul: [wreg+status,2+status,0]
  4347                           
  4348  01B6  01F4               	clrf	___wmul@product
  4349  01B7  01F5               	clrf	___wmul@product+1
  4350  01B8                     i1l1365:	
  4351  01B8  1C70               	btfss	___wmul@multiplier,0
  4352  01B9  29BB               	goto	u35_21
  4353  01BA  29BC               	goto	u35_20
  4354  01BB                     u35_21:	
  4355  01BB  29C0               	goto	i1l535
  4356  01BC                     u35_20:	
  4357  01BC                     i1l1367:	
  4358  01BC  0872               	movf	___wmul@multiplicand,w
  4359  01BD  07F4               	addwf	___wmul@product,f
  4360  01BE  0873               	movf	___wmul@multiplicand+1,w
  4361  01BF  3DF5               	addwfc	___wmul@product+1,f
  4362  01C0                     i1l535:	
  4363  01C0  3001               	movlw	1
  4364  01C1                     u36_25:	
  4365  01C1  35F2               	lslf	___wmul@multiplicand,f
  4366  01C2  0DF3               	rlf	___wmul@multiplicand+1,f
  4367  01C3  0B89               	decfsz	9,f
  4368  01C4  29C1               	goto	u36_25
  4369  01C5                     i1l1369:	
  4370  01C5  3001               	movlw	1
  4371  01C6                     u37_25:	
  4372  01C6  36F1               	lsrf	___wmul@multiplier+1,f
  4373  01C7  0CF0               	rrf	___wmul@multiplier,f
  4374  01C8  0B89               	decfsz	9,f
  4375  01C9  29C6               	goto	u37_25
  4376  01CA                     i1l1371:	
  4377  01CA  0870               	movf	___wmul@multiplier,w
  4378  01CB  0471               	iorwf	___wmul@multiplier+1,w
  4379  01CC  1D03               	btfss	3,2
  4380  01CD  29CF               	goto	u38_21
  4381  01CE  29D0               	goto	u38_20
  4382  01CF                     u38_21:	
  4383  01CF  29B8               	goto	i1l1365
  4384  01D0                     u38_20:	
  4385  01D0                     i1l1373:	
  4386  01D0  0875               	movf	___wmul@product+1,w
  4387  01D1  00F1               	movwf	?___wmul+1
  4388  01D2  0874               	movf	___wmul@product,w
  4389  01D3  00F0               	movwf	?___wmul
  4390  01D4                     i1l537:	
  4391  01D4  0008               	return
  4392  01D5                     __end_of___wmul:	
  4393                           
  4394                           	psect	text17
  4395  025A                     __ptext17:	
  4396 ;; *************** function _lightIntrpt *****************
  4397 ;; Defined at:
  4398 ;;		line 79 in file "main.c"
  4399 ;; Parameters:    Size  Location     Type
  4400 ;;		None
  4401 ;; Auto vars:     Size  Location     Type
  4402 ;;		None
  4403 ;; Return value:  Size  Location     Type
  4404 ;;                  1    wreg      void 
  4405 ;; Registers used:
  4406 ;;		wreg, status,2, status,0, pclath, cstack
  4407 ;; Tracked objects:
  4408 ;;		On entry : 0/0
  4409 ;;		On exit  : 0/0
  4410 ;;		Unchanged: 0/0
  4411 ;; Data sizes:     COMMON   BANK0   BANK1   BANK2   BANK3   BANK4   BANK5   BANK6
  4412 ;;      Params:         0       0       0       0       0       0       0       0
  4413 ;;      Locals:         0       0       0       0       0       0       0       0
  4414 ;;      Temps:          0       0       0       0       0       0       0       0
  4415 ;;      Totals:         0       0       0       0       0       0       0       0
  4416 ;;Total ram usage:        0 bytes
  4417 ;; Hardware stack levels used:    1
  4418 ;; Hardware stack levels required when called:    2
  4419 ;; This function calls:
  4420 ;;		_disable_out
  4421 ;;		_enable_out
  4422 ;;		_out_reset
  4423 ;; This function is called by:
  4424 ;;		_irs_routine
  4425 ;; This function uses a non-reentrant model
  4426 ;;
  4427                           
  4428                           
  4429                           ;psect for function _lightIntrpt
  4430  025A                     _lightIntrpt:	
  4431  025A                     i1l1435:	
  4432                           ;incstack = 0
  4433                           ; Regs used in _lightIntrpt: [wreg+status,2+status,0+pclath+cstack]
  4434                           
  4435                           
  4436                           ;main.c: 80: if (PIR0bits.INTF == 1 || PIR3bits.RCIF == 1) {
  4437  025A  002E               	movlb	14	; select bank14
  4438  025B  180C               	btfsc	12,0	;volatile
  4439  025C  2A5E               	goto	u46_21
  4440  025D  2A5F               	goto	u46_20
  4441  025E                     u46_21:	
  4442  025E  2A63               	goto	i1l186
  4443  025F                     u46_20:	
  4444  025F                     i1l1437:	
  4445  025F  1E8F               	btfss	15,5	;volatile
  4446  0260  2A62               	goto	u47_21
  4447  0261  2A63               	goto	u47_20
  4448  0262                     u47_21:	
  4449  0262  2A70               	goto	i1l187
  4450  0263                     u47_20:	
  4451  0263                     i1l186:	
  4452                           
  4453                           ;main.c: 81: PIE0bits.INTE = 0;
  4454  0263  1016               	bcf	22,0	;volatile
  4455  0264                     i1l1439:	
  4456                           
  4457                           ;main.c: 82: disable_out();
  4458  0264  3182  22C7  3182   	fcall	_disable_out
  4459  0267                     i1l1441:	
  4460                           
  4461                           ;main.c: 83: enable_out();
  4462  0267  3183  232A  3182   	fcall	_enable_out
  4463  026A                     i1l1443:	
  4464                           
  4465                           ;main.c: 84: out_reset();
  4466  026A  3183  2320  3182   	fcall	_out_reset
  4467  026D                     i1l1445:	
  4468                           
  4469                           ;main.c: 85: PIR0bits.INTF = 0;
  4470  026D  002E               	movlb	14	; select bank14
  4471  026E  100C               	bcf	12,0	;volatile
  4472  026F                     i1l1447:	
  4473                           
  4474                           ;main.c: 86: PIE0bits.INTE = 1;
  4475  026F  1416               	bsf	22,0	;volatile
  4476  0270                     i1l187:	
  4477  0270  0008               	return
  4478  0271                     __end_of_lightIntrpt:	
  4479                           
  4480                           	psect	text18
  4481  0320                     __ptext18:	
  4482 ;; *************** function _out_reset *****************
  4483 ;; Defined at:
  4484 ;;		line 308 in file "main.c"
  4485 ;; Parameters:    Size  Location     Type
  4486 ;;		None
  4487 ;; Auto vars:     Size  Location     Type
  4488 ;;		None
  4489 ;; Return value:  Size  Location     Type
  4490 ;;                  1    wreg      void 
  4491 ;; Registers used:
  4492 ;;		wreg, status,2, status,0, pclath, cstack
  4493 ;; Tracked objects:
  4494 ;;		On entry : 0/0
  4495 ;;		On exit  : 0/0
  4496 ;;		Unchanged: 0/0
  4497 ;; Data sizes:     COMMON   BANK0   BANK1   BANK2   BANK3   BANK4   BANK5   BANK6
  4498 ;;      Params:         0       0       0       0       0       0       0       0
  4499 ;;      Locals:         0       0       0       0       0       0       0       0
  4500 ;;      Temps:          0       0       0       0       0       0       0       0
  4501 ;;      Totals:         0       0       0       0       0       0       0       0
  4502 ;;Total ram usage:        0 bytes
  4503 ;; Hardware stack levels used:    1
  4504 ;; Hardware stack levels required when called:    1
  4505 ;; This function calls:
  4506 ;;		i1_delay
  4507 ;; This function is called by:
  4508 ;;		_lightIntrpt
  4509 ;;		_lightup
  4510 ;; This function uses a non-reentrant model
  4511 ;;
  4512                           
  4513                           
  4514                           ;psect for function _out_reset
  4515  0320                     _out_reset:	
  4516  0320                     i1l1395:	
  4517                           ;incstack = 0
  4518                           ; Regs used in _out_reset: [wreg+status,2+status,0+pclath+cstack]
  4519                           
  4520                           
  4521                           ;main.c: 309: LATBbits.LATB5 = 0;
  4522  0320  0020               	movlb	0	; select bank0
  4523  0321  1297               	bcf	23,5	;volatile
  4524  0322                     i1l1397:	
  4525                           
  4526                           ;main.c: 310: delay(88);
  4527  0322  3058               	movlw	88
  4528  0323  00F0               	movwf	i1delay@delay_time
  4529  0324  3000               	movlw	0
  4530  0325  00F1               	movwf	i1delay@delay_time+1
  4531  0326  3182  2271  3183   	fcall	i1_delay
  4532  0329                     i1l250:	
  4533  0329  0008               	return
  4534  032A                     __end_of_out_reset:	
  4535                           
  4536                           	psect	text19
  4537  032A                     __ptext19:	
  4538 ;; *************** function _enable_out *****************
  4539 ;; Defined at:
  4540 ;;		line 274 in file "main.c"
  4541 ;; Parameters:    Size  Location     Type
  4542 ;;		None
  4543 ;; Auto vars:     Size  Location     Type
  4544 ;;		None
  4545 ;; Return value:  Size  Location     Type
  4546 ;;                  1    wreg      void 
  4547 ;; Registers used:
  4548 ;;		None
  4549 ;; Tracked objects:
  4550 ;;		On entry : 0/0
  4551 ;;		On exit  : 0/0
  4552 ;;		Unchanged: 0/0
  4553 ;; Data sizes:     COMMON   BANK0   BANK1   BANK2   BANK3   BANK4   BANK5   BANK6
  4554 ;;      Params:         0       0       0       0       0       0       0       0
  4555 ;;      Locals:         0       0       0       0       0       0       0       0
  4556 ;;      Temps:          0       0       0       0       0       0       0       0
  4557 ;;      Totals:         0       0       0       0       0       0       0       0
  4558 ;;Total ram usage:        0 bytes
  4559 ;; Hardware stack levels used:    1
  4560 ;; This function calls:
  4561 ;;		Nothing
  4562 ;; This function is called by:
  4563 ;;		_lightIntrpt
  4564 ;;		_lightup
  4565 ;; This function uses a non-reentrant model
  4566 ;;
  4567                           
  4568                           
  4569                           ;psect for function _enable_out
  4570  032A                     _enable_out:	
  4571  032A                     i1l1393:	
  4572                           ;incstack = 0
  4573                           ; Regs used in _enable_out: []
  4574                           
  4575                           
  4576                           ;main.c: 276: TX1STAbits.TXEN = 1;
  4577  032A  0022               	movlb	2	; select bank2
  4578  032B  169E               	bsf	30,5	;volatile
  4579                           
  4580                           ;main.c: 277: TX1STAbits.SYNC = 1;
  4581  032C  161E               	bsf	30,4	;volatile
  4582                           
  4583                           ;main.c: 278: RC1STAbits.CREN = 0;
  4584  032D  121D               	bcf	29,4	;volatile
  4585                           
  4586                           ;main.c: 281: CWG1CON0bits.EN = 1;
  4587  032E  002C               	movlb	12	; select bank12
  4588  032F  1790               	bsf	16,7	;volatile
  4589                           
  4590                           ;main.c: 284: CLC1CONbits.LC1EN = 1;
  4591  0330  003C               	movlb	28	; select bank28
  4592  0331  1790               	bsf	16,7	;volatile
  4593  0332                     i1l238:	
  4594  0332  0008               	return
  4595  0333                     __end_of_enable_out:	
  4596                           
  4597                           	psect	text20
  4598  02C7                     __ptext20:	
  4599 ;; *************** function _disable_out *****************
  4600 ;; Defined at:
  4601 ;;		line 294 in file "main.c"
  4602 ;; Parameters:    Size  Location     Type
  4603 ;;		None
  4604 ;; Auto vars:     Size  Location     Type
  4605 ;;		None
  4606 ;; Return value:  Size  Location     Type
  4607 ;;                  1    wreg      void 
  4608 ;; Registers used:
  4609 ;;		wreg, status,2, status,0, pclath, cstack
  4610 ;; Tracked objects:
  4611 ;;		On entry : 0/0
  4612 ;;		On exit  : 0/0
  4613 ;;		Unchanged: 0/0
  4614 ;; Data sizes:     COMMON   BANK0   BANK1   BANK2   BANK3   BANK4   BANK5   BANK6
  4615 ;;      Params:         0       0       0       0       0       0       0       0
  4616 ;;      Locals:         0       0       0       0       0       0       0       0
  4617 ;;      Temps:          0       0       0       0       0       0       0       0
  4618 ;;      Totals:         0       0       0       0       0       0       0       0
  4619 ;;Total ram usage:        0 bytes
  4620 ;; Hardware stack levels used:    1
  4621 ;; Hardware stack levels required when called:    1
  4622 ;; This function calls:
  4623 ;;		i1_delay
  4624 ;; This function is called by:
  4625 ;;		_lightIntrpt
  4626 ;;		_lightup
  4627 ;; This function uses a non-reentrant model
  4628 ;;
  4629                           
  4630                           
  4631                           ;psect for function _disable_out
  4632  02C7                     _disable_out:	
  4633  02C7                     i1l1381:	
  4634                           ;incstack = 0
  4635                           ; Regs used in _disable_out: [wreg+status,2+status,0+pclath+cstack]
  4636                           
  4637                           
  4638                           ;main.c: 295: delay(100);
  4639  02C7  3064               	movlw	100
  4640  02C8  00F0               	movwf	i1delay@delay_time
  4641  02C9  3000               	movlw	0
  4642  02CA  00F1               	movwf	i1delay@delay_time+1
  4643  02CB  3182  2271  3182   	fcall	i1_delay
  4644  02CE                     i1l1383:	
  4645                           
  4646                           ;main.c: 297: TX1STAbits.TXEN = 0;
  4647  02CE  0022               	movlb	2	; select bank2
  4648  02CF  129E               	bcf	30,5	;volatile
  4649  02D0                     i1l1385:	
  4650                           
  4651                           ;main.c: 298: TX1STAbits.SYNC = 0;
  4652  02D0  121E               	bcf	30,4	;volatile
  4653  02D1                     i1l1387:	
  4654                           
  4655                           ;main.c: 299: RC1STAbits.CREN = 1;
  4656  02D1  161D               	bsf	29,4	;volatile
  4657  02D2                     i1l1389:	
  4658                           
  4659                           ;main.c: 302: CWG1CON0bits.EN = 0;
  4660  02D2  002C               	movlb	12	; select bank12
  4661  02D3  1390               	bcf	16,7	;volatile
  4662  02D4                     i1l1391:	
  4663                           
  4664                           ;main.c: 305: CLC1CONbits.LC1EN = 0;
  4665  02D4  003C               	movlb	28	; select bank28
  4666  02D5  1390               	bcf	16,7	;volatile
  4667  02D6                     i1l247:	
  4668  02D6  0008               	return
  4669  02D7                     __end_of_disable_out:	
  4670                           
  4671                           	psect	text21
  4672  0271                     __ptext21:	
  4673 ;; *************** function i1_delay *****************
  4674 ;; Defined at:
  4675 ;;		line 287 in file "main.c"
  4676 ;; Parameters:    Size  Location     Type
  4677 ;;  delay_time      2    0[COMMON] int 
  4678 ;; Auto vars:     Size  Location     Type
  4679 ;;  delay           2    3[COMMON] int 
  4680 ;; Return value:  Size  Location     Type
  4681 ;;                  1    wreg      void 
  4682 ;; Registers used:
  4683 ;;		wreg
  4684 ;; Tracked objects:
  4685 ;;		On entry : 0/0
  4686 ;;		On exit  : 0/0
  4687 ;;		Unchanged: 0/0
  4688 ;; Data sizes:     COMMON   BANK0   BANK1   BANK2   BANK3   BANK4   BANK5   BANK6
  4689 ;;      Params:         2       0       0       0       0       0       0       0
  4690 ;;      Locals:         2       0       0       0       0       0       0       0
  4691 ;;      Temps:          1       0       0       0       0       0       0       0
  4692 ;;      Totals:         5       0       0       0       0       0       0       0
  4693 ;;Total ram usage:        5 bytes
  4694 ;; Hardware stack levels used:    1
  4695 ;; This function calls:
  4696 ;;		Nothing
  4697 ;; This function is called by:
  4698 ;;		_disable_out
  4699 ;;		_out_reset
  4700 ;; This function uses a non-reentrant model
  4701 ;;
  4702                           
  4703                           
  4704                           ;psect for function i1_delay
  4705  0271                     i1_delay:	
  4706  0271                     i1l1377:	
  4707                           ;incstack = 0
  4708                           ; Regs used in i1_delay: [wreg]
  4709                           
  4710                           
  4711                           ;main.c: 288: int i = delay_time;
  4712  0271  0871               	movf	i1delay@delay_time+1,w
  4713  0272  00F4               	movwf	i1delay@i+1
  4714  0273  0870               	movf	i1delay@delay_time,w
  4715  0274  00F3               	movwf	i1delay@i
  4716                           
  4717                           ;main.c: 289: while (i > 0) {
  4718  0275  2A7A               	goto	i1l241
  4719  0276                     i1l1379:	
  4720                           
  4721                           ;main.c: 290: --i;
  4722  0276  30FF               	movlw	255
  4723  0277  07F3               	addwf	i1delay@i,f
  4724  0278  30FF               	movlw	255
  4725  0279  3DF4               	addwfc	i1delay@i+1,f
  4726  027A                     i1l241:	
  4727  027A  0874               	movf	i1delay@i+1,w
  4728  027B  3A80               	xorlw	128
  4729  027C  00F2               	movwf	??i1_delay
  4730  027D  3080               	movlw	128
  4731  027E  0272               	subwf	??i1_delay,w
  4732  027F  1D03               	skipz
  4733  0280  2A83               	goto	u39_25
  4734  0281  3001               	movlw	1
  4735  0282  0273               	subwf	i1delay@i,w
  4736  0283                     u39_25:	
  4737  0283  1803               	skipnc
  4738  0284  2A86               	goto	u39_21
  4739  0285  2A87               	goto	u39_20
  4740  0286                     u39_21:	
  4741  0286  2A76               	goto	i1l1379
  4742  0287                     u39_20:	
  4743  0287                     i1l244:	
  4744  0287  0008               	return
  4745  0288                     __end_ofi1_delay:	
  4746                           
  4747                           	psect	text22
  4748  02D7                     __ptext22:	
  4749 ;; *************** function _centerWriteToPeripheral *****************
  4750 ;; Defined at:
  4751 ;;		line 25 in file "i2c_center.c"
  4752 ;; Parameters:    Size  Location     Type
  4753 ;;  peripheralAd    1    wreg     unsigned char 
  4754 ;;  data            1    1[COMMON] unsigned char 
  4755 ;; Auto vars:     Size  Location     Type
  4756 ;;  peripheralAd    1    2[COMMON] unsigned char 
  4757 ;; Return value:  Size  Location     Type
  4758 ;;                  1    wreg      void 
  4759 ;; Registers used:
  4760 ;;		wreg, status,2, status,0, pclath, cstack
  4761 ;; Tracked objects:
  4762 ;;		On entry : 0/0
  4763 ;;		On exit  : 0/0
  4764 ;;		Unchanged: 0/0
  4765 ;; Data sizes:     COMMON   BANK0   BANK1   BANK2   BANK3   BANK4   BANK5   BANK6
  4766 ;;      Params:         1       0       0       0       0       0       0       0
  4767 ;;      Locals:         1       0       0       0       0       0       0       0
  4768 ;;      Temps:          0       0       0       0       0       0       0       0
  4769 ;;      Totals:         2       0       0       0       0       0       0       0
  4770 ;;Total ram usage:        2 bytes
  4771 ;; Hardware stack levels used:    1
  4772 ;; Hardware stack levels required when called:    1
  4773 ;; This function calls:
  4774 ;;		_IIC_Start
  4775 ;;		_IIC_Stop
  4776 ;;		_IIC_Write_Byte
  4777 ;; This function is called by:
  4778 ;;		_irs_routine
  4779 ;; This function uses a non-reentrant model
  4780 ;;
  4781                           
  4782                           
  4783                           ;psect for function _centerWriteToPeripheral
  4784  02D7                     _centerWriteToPeripheral:	
  4785                           
  4786                           ;incstack = 0
  4787                           ; Regs used in _centerWriteToPeripheral: [wreg+status,2+status,0+pclath+cstack]
  4788                           ;centerWriteToPeripheral@peripheralAddr stored from wreg
  4789  02D7  00F2               	movwf	centerWriteToPeripheral@peripheralAddr
  4790  02D8                     i1l1493:	
  4791                           
  4792                           ;i2c_center.c: 26: IIC_Start();
  4793  02D8  3183  230B  3182   	fcall	_IIC_Start
  4794  02DB                     i1l1495:	
  4795                           
  4796                           ;i2c_center.c: 27: IIC_Write_Byte((peripheralAddr << 1) + 0);
  4797  02DB  3572               	lslf	centerWriteToPeripheral@peripheralAddr,w
  4798  02DC  3183  2300  3182   	fcall	_IIC_Write_Byte
  4799  02DF                     i1l1497:	
  4800                           
  4801                           ;i2c_center.c: 28: IIC_Write_Byte(data);
  4802  02DF  0871               	movf	centerWriteToPeripheral@data,w
  4803  02E0  3183  2300  3182   	fcall	_IIC_Write_Byte
  4804                           
  4805                           ;i2c_center.c: 29: IIC_Stop();
  4806  02E3  3183  2333  3182   	fcall	_IIC_Stop
  4807  02E6                     i1l347:	
  4808  02E6  0008               	return
  4809  02E7                     __end_of_centerWriteToPeripheral:	
  4810                           
  4811                           	psect	text23
  4812  0300                     __ptext23:	
  4813 ;; *************** function _IIC_Write_Byte *****************
  4814 ;; Defined at:
  4815 ;;		line 44 in file "i2c_center.c"
  4816 ;; Parameters:    Size  Location     Type
  4817 ;;  d               1    wreg     unsigned char 
  4818 ;; Auto vars:     Size  Location     Type
  4819 ;;  d               1    0[COMMON] unsigned char 
  4820 ;; Return value:  Size  Location     Type
  4821 ;;                  1    wreg      void 
  4822 ;; Registers used:
  4823 ;;		wreg
  4824 ;; Tracked objects:
  4825 ;;		On entry : 0/0
  4826 ;;		On exit  : 0/0
  4827 ;;		Unchanged: 0/0
  4828 ;; Data sizes:     COMMON   BANK0   BANK1   BANK2   BANK3   BANK4   BANK5   BANK6
  4829 ;;      Params:         0       0       0       0       0       0       0       0
  4830 ;;      Locals:         1       0       0       0       0       0       0       0
  4831 ;;      Temps:          0       0       0       0       0       0       0       0
  4832 ;;      Totals:         1       0       0       0       0       0       0       0
  4833 ;;Total ram usage:        1 bytes
  4834 ;; Hardware stack levels used:    1
  4835 ;; This function calls:
  4836 ;;		Nothing
  4837 ;; This function is called by:
  4838 ;;		_centerWriteToPeripheral
  4839 ;;		_centerReadFromPeripheral
  4840 ;; This function uses a non-reentrant model
  4841 ;;
  4842                           
  4843                           
  4844                           ;psect for function _IIC_Write_Byte
  4845  0300                     _IIC_Write_Byte:	
  4846                           
  4847                           ;incstack = 0
  4848                           ; Regs used in _IIC_Write_Byte: [wreg]
  4849                           ;IIC_Write_Byte@d stored from wreg
  4850  0300  00F0               	movwf	IIC_Write_Byte@d
  4851  0301                     i1l1431:	
  4852                           
  4853                           ;i2c_center.c: 45: SSP2BUF = d;
  4854  0301  0870               	movf	IIC_Write_Byte@d,w
  4855  0302  0023               	movlb	3	; select bank3
  4856  0303  0096               	movwf	22	;volatile
  4857  0304                     i1l356:	
  4858                           ;i2c_center.c: 46: while (!PIR3bits.SSP2IF);
  4859                           
  4860  0304  002E               	movlb	14	; select bank14
  4861  0305  1D0F               	btfss	15,2	;volatile
  4862  0306  2B08               	goto	u44_21
  4863  0307  2B09               	goto	u44_20
  4864  0308                     u44_21:	
  4865  0308  2B04               	goto	i1l356
  4866  0309                     u44_20:	
  4867  0309                     i1l358:	
  4868                           
  4869                           ;i2c_center.c: 47: PIR3bits.SSP2IF = 0;
  4870  0309  110F               	bcf	15,2	;volatile
  4871  030A                     i1l359:	
  4872  030A  0008               	return
  4873  030B                     __end_of_IIC_Write_Byte:	
  4874                           
  4875                           	psect	text24
  4876  0333                     __ptext24:	
  4877 ;; *************** function _IIC_Stop *****************
  4878 ;; Defined at:
  4879 ;;		line 66 in file "i2c_center.c"
  4880 ;; Parameters:    Size  Location     Type
  4881 ;;		None
  4882 ;; Auto vars:     Size  Location     Type
  4883 ;;		None
  4884 ;; Return value:  Size  Location     Type
  4885 ;;                  1    wreg      void 
  4886 ;; Registers used:
  4887 ;;		None
  4888 ;; Tracked objects:
  4889 ;;		On entry : 0/0
  4890 ;;		On exit  : 0/0
  4891 ;;		Unchanged: 0/0
  4892 ;; Data sizes:     COMMON   BANK0   BANK1   BANK2   BANK3   BANK4   BANK5   BANK6
  4893 ;;      Params:         0       0       0       0       0       0       0       0
  4894 ;;      Locals:         0       0       0       0       0       0       0       0
  4895 ;;      Temps:          0       0       0       0       0       0       0       0
  4896 ;;      Totals:         0       0       0       0       0       0       0       0
  4897 ;;Total ram usage:        0 bytes
  4898 ;; Hardware stack levels used:    1
  4899 ;; This function calls:
  4900 ;;		Nothing
  4901 ;; This function is called by:
  4902 ;;		_centerWriteToPeripheral
  4903 ;;		_centerReadFromPeripheral
  4904 ;; This function uses a non-reentrant model
  4905 ;;
  4906                           
  4907                           
  4908                           ;psect for function _IIC_Stop
  4909  0333                     _IIC_Stop:	
  4910  0333                     i1l1433:	
  4911                           ;incstack = 0
  4912                           ; Regs used in _IIC_Stop: []
  4913                           
  4914                           
  4915                           ;i2c_center.c: 67: SSP2CON2bits.PEN = 1;
  4916  0333  0023               	movlb	3	; select bank3
  4917  0334  151B               	bsf	27,2	;volatile
  4918  0335                     i1l374:	
  4919                           ;i2c_center.c: 68: while (!PIR3bits.SSP2IF);
  4920                           
  4921  0335  002E               	movlb	14	; select bank14
  4922  0336  1D0F               	btfss	15,2	;volatile
  4923  0337  2B39               	goto	u45_21
  4924  0338  2B3A               	goto	u45_20
  4925  0339                     u45_21:	
  4926  0339  2B35               	goto	i1l374
  4927  033A                     u45_20:	
  4928  033A                     i1l376:	
  4929                           
  4930                           ;i2c_center.c: 69: PIR3bits.SSP2IF = 0;
  4931  033A  110F               	bcf	15,2	;volatile
  4932  033B                     i1l377:	
  4933  033B  0008               	return
  4934  033C                     __end_of_IIC_Stop:	
  4935                           
  4936                           	psect	text25
  4937  030B                     __ptext25:	
  4938 ;; *************** function _IIC_Start *****************
  4939 ;; Defined at:
  4940 ;;		line 58 in file "i2c_center.c"
  4941 ;; Parameters:    Size  Location     Type
  4942 ;;		None
  4943 ;; Auto vars:     Size  Location     Type
  4944 ;;		None
  4945 ;; Return value:  Size  Location     Type
  4946 ;;                  1    wreg      void 
  4947 ;; Registers used:
  4948 ;;		None
  4949 ;; Tracked objects:
  4950 ;;		On entry : 0/0
  4951 ;;		On exit  : 0/0
  4952 ;;		Unchanged: 0/0
  4953 ;; Data sizes:     COMMON   BANK0   BANK1   BANK2   BANK3   BANK4   BANK5   BANK6
  4954 ;;      Params:         0       0       0       0       0       0       0       0
  4955 ;;      Locals:         0       0       0       0       0       0       0       0
  4956 ;;      Temps:          0       0       0       0       0       0       0       0
  4957 ;;      Totals:         0       0       0       0       0       0       0       0
  4958 ;;Total ram usage:        0 bytes
  4959 ;; Hardware stack levels used:    1
  4960 ;; This function calls:
  4961 ;;		Nothing
  4962 ;; This function is called by:
  4963 ;;		_centerWriteToPeripheral
  4964 ;;		_centerReadFromPeripheral
  4965 ;; This function uses a non-reentrant model
  4966 ;;
  4967                           
  4968                           
  4969                           ;psect for function _IIC_Start
  4970  030B                     _IIC_Start:	
  4971  030B                     i1l1429:	
  4972                           ;incstack = 0
  4973                           ; Regs used in _IIC_Start: []
  4974                           
  4975                           
  4976                           ;i2c_center.c: 59: PIR3bits.SSP2IF = 0;
  4977  030B  002E               	movlb	14	; select bank14
  4978  030C  110F               	bcf	15,2	;volatile
  4979                           
  4980                           ;i2c_center.c: 60: SSP2CON2bits.SEN = 1;
  4981  030D  0023               	movlb	3	; select bank3
  4982  030E  141B               	bsf	27,0	;volatile
  4983  030F                     i1l368:	
  4984                           ;i2c_center.c: 61: while(!PIR3bits.SSP2IF);
  4985                           
  4986  030F  002E               	movlb	14	; select bank14
  4987  0310  1D0F               	btfss	15,2	;volatile
  4988  0311  2B13               	goto	u43_21
  4989  0312  2B14               	goto	u43_20
  4990  0313                     u43_21:	
  4991  0313  2B0F               	goto	i1l368
  4992  0314                     u43_20:	
  4993  0314                     i1l370:	
  4994                           
  4995                           ;i2c_center.c: 63: PIR3bits.SSP2IF = 0;
  4996  0314  110F               	bcf	15,2	;volatile
  4997  0315                     i1l371:	
  4998  0315  0008               	return
  4999  0316                     __end_of_IIC_Start:	
  5000  007E                     btemp	set	126	;btemp
  5001  007E                     int$flags	set	126
  5002  007E                     wtemp0	set	126


Data Sizes:
    Strings     0
    Constant    0
    Data        21
    BSS         32
    Persistent  32
    Stack       0

Auto Spaces:
    Space          Size  Autos    Used
    COMMON           14     14      14
    BANK0            80     15      68
    BANK1            80      6       6
    BANK2            80      0       0
    BANK3            80      0       0
    BANK4            80      0       0
    BANK5            80      0       0
    BANK6            16      0       0

Pointer List with Targets:

    sp__centerReadFromPeripheral	PTR unsigned char  size(1) Largest target is 10
		 -> recievedData(BANK0[10]), NULL(NULL[0]), 


Critical Paths under _main in COMMON

    None.

Critical Paths under _irs_routine in COMMON

    _irs_routine->_lightup
    _lightup->_turn_off_all
    _turn_off_all->___wmul
    _out_reset->i1_delay
    _disable_out->i1_delay
    _centerWriteToPeripheral->_IIC_Write_Byte

Critical Paths under _main in BANK0

    None.

Critical Paths under _irs_routine in BANK0

    _irs_routine->_lightup

Critical Paths under _main in BANK1

    _startADC->_delay

Critical Paths under _irs_routine in BANK1

    None.

Critical Paths under _main in BANK2

    None.

Critical Paths under _irs_routine in BANK2

    None.

Critical Paths under _main in BANK3

    None.

Critical Paths under _irs_routine in BANK3

    None.

Critical Paths under _main in BANK4

    None.

Critical Paths under _irs_routine in BANK4

    None.

Critical Paths under _main in BANK5

    None.

Critical Paths under _irs_routine in BANK5

    None.

Critical Paths under _main in BANK6

    None.

Critical Paths under _irs_routine in BANK6

    None.

Call Graph Tables:

 ---------------------------------------------------------------------------------
 (Depth) Function   	        Calls       Base Space   Used Autos Params    Refs
 ---------------------------------------------------------------------------------
 (0) _main                                                 1     1      0     479
                                              5 BANK1      1     1      0
                            _initADC
                       _initHardware
                            _init_oc
                          _init_port
                            _set_clc
                            _set_cwg
                         _set_eusart
                      _set_interrupt
                            _set_pps
                           _startADC
 ---------------------------------------------------------------------------------
 (1) _startADC                                             0     0      0     268
                              _delay
 ---------------------------------------------------------------------------------
 (2) _delay                                                5     3      2     268
                                              0 BANK1      5     3      2
 ---------------------------------------------------------------------------------
 (1) _set_pps                                              0     0      0       0
 ---------------------------------------------------------------------------------
 (1) _set_interrupt                                        0     0      0       0
 ---------------------------------------------------------------------------------
 (1) _set_eusart                                           0     0      0       0
 ---------------------------------------------------------------------------------
 (1) _set_cwg                                              0     0      0       0
 ---------------------------------------------------------------------------------
 (1) _set_clc                                              0     0      0       0
 ---------------------------------------------------------------------------------
 (1) _init_port                                            0     0      0       0
 ---------------------------------------------------------------------------------
 (1) _init_oc                                              0     0      0       0
 ---------------------------------------------------------------------------------
 (1) _initHardware                                         3     0      3     211
                                              0 BANK1      3     0      3
                  _initIICCenterMode
 ---------------------------------------------------------------------------------
 (2) _initIICCenterMode                                    0     0      0       0
 ---------------------------------------------------------------------------------
 (1) _initADC                                              0     0      0       0
 ---------------------------------------------------------------------------------
 Estimated maximum stack depth 2
 ---------------------------------------------------------------------------------
 (Depth) Function   	        Calls       Base Space   Used Autos Params    Refs
 ---------------------------------------------------------------------------------
 (3) _irs_routine                                          2     2      0    1129
                                             13 BANK0      2     2      0
            _centerWriteToPeripheral
                        _lightIntrpt
                            _lightup
 ---------------------------------------------------------------------------------
 (4) _lightup                                             16    16      0     791
                                             11 COMMON     3     3      0
                                              0 BANK0     13    13      0
                        _disable_out
                         _enable_out
                          _out_reset
                       _turn_off_all
 ---------------------------------------------------------------------------------
 (5) _turn_off_all                                         5     3      2     366
                                              6 COMMON     5     3      2
                             ___wmul
 ---------------------------------------------------------------------------------
 (6) ___wmul                                               6     2      4     244
                                              0 COMMON     6     2      4
 ---------------------------------------------------------------------------------
 (4) _lightIntrpt                                          0     0      0     196
                        _disable_out
                         _enable_out
                          _out_reset
 ---------------------------------------------------------------------------------
 (5) _out_reset                                            0     0      0      98
                            i1_delay
 ---------------------------------------------------------------------------------
 (5) _enable_out                                           0     0      0       0
 ---------------------------------------------------------------------------------
 (5) _disable_out                                          0     0      0      98
                            i1_delay
 ---------------------------------------------------------------------------------
 (6) i1_delay                                              5     3      2      98
                                              0 COMMON     5     3      2
 ---------------------------------------------------------------------------------
 (4) _centerWriteToPeripheral                              2     1      1     142
                                              1 COMMON     2     1      1
                          _IIC_Start
                           _IIC_Stop
                     _IIC_Write_Byte
 ---------------------------------------------------------------------------------
 (5) _IIC_Write_Byte                                       1     1      0      22
                                              0 COMMON     1     1      0
 ---------------------------------------------------------------------------------
 (5) _IIC_Stop                                             0     0      0       0
 ---------------------------------------------------------------------------------
 (5) _IIC_Start                                            0     0      0       0
 ---------------------------------------------------------------------------------
 Estimated maximum stack depth 6
 ---------------------------------------------------------------------------------

 Call Graph Graphs:

 _main (ROOT)
   _initADC
   _initHardware
     _initIICCenterMode
   _init_oc
   _init_port
   _set_clc
   _set_cwg
   _set_eusart
   _set_interrupt
   _set_pps
   _startADC
     _delay

 _irs_routine (ROOT)
   _centerWriteToPeripheral
     _IIC_Start
     _IIC_Stop
     _IIC_Write_Byte
   _lightIntrpt
     _disable_out
       i1_delay
     _enable_out
     _out_reset
       i1_delay
   _lightup
     _disable_out
       i1_delay
     _enable_out
     _out_reset
       i1_delay
     _turn_off_all
       ___wmul

 Address spaces:
Name               Size   Autos  Total    Cost      Usage
BIGRAM             1F0      0       0       0        0.0%
EEDATA             100      0       0       0        0.0%
NULL                 0      0       0       0        0.0%
CODE                 0      0       0       0        0.0%
BITCOMMON            E      0       0       1        0.0%
BITSFR0              0      0       0       1        0.0%
SFR0                 0      0       0       1        0.0%
COMMON               E      E       E       2      100.0%
BITSFR1              0      0       0       2        0.0%
SFR1                 0      0       0       2        0.0%
BITSFR2              0      0       0       3        0.0%
SFR2                 0      0       0       3        0.0%
STACK                0      0       0       3        0.0%
BITSFR3              0      0       0       4        0.0%
SFR3                 0      0       0       4        0.0%
ABS                  0      0      58       4        0.0%
BITBANK0            50      0       0       5        0.0%
BITSFR4              0      0       0       5        0.0%
SFR4                 0      0       0       5        0.0%
BANK0               50      F      44       6       85.0%
BITSFR5              0      0       0       6        0.0%
SFR5                 0      0       0       6        0.0%
BITBANK1            50      0       0       7        0.0%
BITSFR6              0      0       0       7        0.0%
SFR6                 0      0       0       7        0.0%
BANK1               50      6       6       8        7.5%
BITSFR7              0      0       0       8        0.0%
SFR7                 0      0       0       8        0.0%
BITBANK2            50      0       0       9        0.0%
BITSFR8              0      0       0       9        0.0%
SFR8                 0      0       0       9        0.0%
BANK2               50      0       0      10        0.0%
BITSFR9              0      0       0      10        0.0%
SFR9                 0      0       0      10        0.0%
BITBANK3            50      0       0      11        0.0%
BITSFR10             0      0       0      11        0.0%
SFR10                0      0       0      11        0.0%
BANK3               50      0       0      12        0.0%
BITSFR11             0      0       0      12        0.0%
SFR11                0      0       0      12        0.0%
BITBANK4            50      0       0      13        0.0%
BITSFR12             0      0       0      13        0.0%
SFR12                0      0       0      13        0.0%
BANK4               50      0       0      14        0.0%
BITSFR13             0      0       0      14        0.0%
SFR13                0      0       0      14        0.0%
BITBANK5            50      0       0      15        0.0%
BITSFR14             0      0       0      15        0.0%
SFR14                0      0       0      15        0.0%
BANK5               50      0       0      16        0.0%
BITSFR15             0      0       0      16        0.0%
SFR15                0      0       0      16        0.0%
BITBANK6            10      0       0      17        0.0%
BITSFR16             0      0       0      17        0.0%
SFR16                0      0       0      17        0.0%
BANK6               10      0       0      18        0.0%
BITSFR17             0      0       0      18        0.0%
SFR17                0      0       0      18        0.0%
BITSFR18             0      0       0      19        0.0%
SFR18                0      0       0      19        0.0%
DATA                 0      0      58      19        0.0%
BITSFR19             0      0       0      20        0.0%
SFR19                0      0       0      20        0.0%
BITSFR20             0      0       0      21        0.0%
SFR20                0      0       0      21        0.0%
BITSFR21             0      0       0      22        0.0%
SFR21                0      0       0      22        0.0%
BITSFR22             0      0       0      23        0.0%
SFR22                0      0       0      23        0.0%
BITSFR23             0      0       0      24        0.0%
SFR23                0      0       0      24        0.0%
BITSFR24             0      0       0      25        0.0%
SFR24                0      0       0      25        0.0%
BITSFR25             0      0       0      26        0.0%
SFR25                0      0       0      26        0.0%
BITSFR26             0      0       0      27        0.0%
SFR26                0      0       0      27        0.0%
BITSFR27             0      0       0      28        0.0%
SFR27                0      0       0      28        0.0%
BITSFR28             0      0       0      29        0.0%
SFR28                0      0       0      29        0.0%
BITSFR29             0      0       0      30        0.0%
SFR29                0      0       0      30        0.0%
BITSFR30             0      0       0      31        0.0%
SFR30                0      0       0      31        0.0%
BITSFR31             0      0       0      32        0.0%
SFR31                0      0       0      32        0.0%


Microchip Technology PIC Macro Assembler V2.10 build 88905656 
Symbol Table                                                                                   Mon Sep 14 22:41:35 2020

                                    _T 0052                    ___wmul@multiplicand 0072  
                                  l220 031F                                    l223 02F3  
                                  l312 020D                                    l232 01F2  
                                  l217 0343                                    l241 0233  
                                  l226 02FF                                    l315 02B1  
                                  l235 0259                                    l244 0240  
                                  l229 01B5                                    l262 02C6  
                                  l265 0223                                    l268 0227  
                                  _ARR 0020                                    u700 0227  
                                  u701 0226                                    u680 0240  
                                  u681 023F                                    u690 020A  
                                  u691 0209                                    u685 023C  
                                  _min 0050                                    wreg 0009  
                         _BAUD1CONbits 011F                                   l1701 02AE  
                                 l1711 02C3                                   l1703 033C  
                                 l1713 02C4                                   l1705 02E7  
                                 l1721 0193                                   l1801 013E  
                                 l1707 02EF                                   l1731 02F8  
                                 l1715 0316                                   l1723 01B2  
                                 l1811 0150                                   l1803 0141  
                                 l1709 02B2                                   l1741 02FD  
                                 l1733 02F9                                   l1717 031B  
                                 l1725 01B3                                   l1813 0153  
                                 l1805 0147                                   l1751 01E0  
                                 l1743 02FE                                   l1735 02FA  
                                 l1727 02F4                                   l1719 031D  
                                 l1815 0155                                   l1807 014A  
                                 l1761 01F1                                   l1753 01E2  
                                 l1745 01D5                                   l1737 02FB  
                                 l1729 02F6                                   l1681 0228  
                                 l1817 0156                                   l1809 014D  
                                 l1691 02A8                                   l1771 0253  
                                 l1763 0241                                   l1755 01EB  
                                 l1747 01DA                                   l1739 02FC  
                                 l1683 022E                                   l1819 0164  
                                 l1693 02A9                                   l1685 029D  
                                 l1781 0202                                   l1773 0256  
                                 l1765 0243                                   l1757 01EC  
                                 l1749 01DE                                   l1695 02AA  
                                 l1687 02A5                                   l1783 0203  
                                 l1775 0257                                   l1767 024D  
                                 l1759 01EF                                   l1791 0213  
                                 l1697 02AB                                   l1689 02A7  
                                 l1785 020A                                   l1777 01F3  
                                 l1769 0250                                   l1793 021B  
                                 l1699 02AD                                   l1779 0201  
                                 l1795 021E                                   l1787 020E  
                                 l1797 0221                                   l1789 0210  
                                 l1799 013B                                   _LATA 0016  
                                 _LATB 0017                                   _LATC 0018  
                                 _WPUA 0F39                          turn_off_all@i 0079  
                                 _main 013B                                   fsr0h 0005  
                                 fsr1h 0007                                   indf0 0000  
                                 fsr0l 0004                                   indf1 0001  
                                 fsr1l 0006                                   btemp 007E  
                      __end_ofi1_delay 0288                     __size_of_IIC_Start 000B  
                                 start 006A                           ?_lightIntrpt 0070  
                     __end_of_IIC_Stop 033C                                  ?_main 0070  
                                _ADCLK 0098                                  _ADPCH 009E  
                        __CFG_WDTE$OFF 0000                                  i1l202 00F1  
                                i1l205 00FA                                  i1l214 013A  
                                i1l208 0103                                  i1l241 027A  
                                i1l250 0329                                  i1l244 0287  
                                i1l181 0068                                  i1l238 0332  
                                i1l247 02D6                                  i1l255 017A  
                                i1l370 0314                                  i1l186 0263  
                                i1l371 0315                                  i1l347 02E6  
                                i1l187 0270                                  i1l259 0192  
                                i1l356 0304                                  i1l374 0335  
                                i1l358 0309                                  i1l359 030A  
                                i1l535 01C0                                  i1l368 030F  
                                i1l376 033A                           _CLC1SEL0bits 0E12  
                                i1l377 033B                                  i1l537 01D4  
                         _CLC1SEL1bits 0E13                           _CLC1SEL2bits 0E14  
                         _CLC1SEL3bits 0E15                                  u40_20 017F  
                                u40_21 017E                                  u41_20 0192  
                                u41_21 0191                                  u41_25 018E  
                                u50_25 00C6                                  u43_20 0314  
                                u35_20 01BC                                  u43_21 0313  
                                u35_21 01BB                                  _PORTA 000C  
                                _PORTB 000D                                  _PORTC 000E  
                                u51_25 00DD                                  u44_20 0309  
                                u52_20 00F6                                  u60_20 002A  
                                u44_21 0308                                  u52_21 00F5  
                                u60_21 0029                                  u36_25 01C1  
                                u60_25 0026                                  u45_20 033A  
                                u53_20 00FF                                  u61_20 0048  
                                u45_21 0339                                  u53_21 00FE  
                                u61_21 0047                                  u37_25 01C6  
                                u46_20 025F                                  u38_20 01D0  
                                u54_20 0108                                  u62_20 0056  
                                u46_21 025E                                  u38_21 01CF  
                                u54_21 0107                                  u62_21 0055  
                                u62_25 0052                                  u39_20 0287  
                                u47_20 0263                                  u55_20 0118  
                                u39_21 0286                                  u47_21 0262  
                                u55_21 0117                                  u39_25 0283  
                                u56_20 0130                                  u48_20 00A2  
                                u56_21 012F                                  u48_21 00A1  
                                _TRISA 0011                                  _TRISB 0012  
                                u49_25 00AF                                  _TRISC 0013  
                                u59_20 000E                                  u59_21 000D  
                       _IIC_Write_Byte 0300                        __end_of_initADC 02C7  
                                _delay 0228                                  _index 0034  
                      __end_of_init_oc 0344                        __end_of_lightup 013B  
                      __end_of_set_clc 025A                        __end_of_set_cwg 01F3  
                      __end_of_set_pps 01B6                                  status 0003  
                                wtemp0 007E                          ?_initHardware 00A0  
                      __initialization 006C                         _CWG1CLKCONbits 060C  
                         __end_of_main 016A                  __size_of_turn_off_all 0029  
                         ?_irs_routine 0070                                 ??_main 00A5  
               __end_of_IIC_Write_Byte 030B                      __end_of_IIC_Start 0316  
                               ?_delay 00A0                                 _ADCON0 0093  
                               _ADCON1 0094                                 _ADCON2 0095  
                               _ADRESH 008D                                 _ANSELA 0F38  
                               _ANSELB 0F43                                 _ANSELC 0F4E  
                            ??i1_delay 0072                                 _RC1PPS 0F21  
                               _RC2PPS 0F22                                 _RB4PPS 0F1C  
                               _RB5PPS 0F1D                                 _RC3PPS 0F23  
                               i1l1401 017F                                 i1l1403 0181  
                               i1l1405 0185                                 i1l1431 0301  
                               i1l1433 0333                                 i1l1441 0267  
                               i1l1601 000F                                 i1l1443 026A  
                               i1l1435 025A                                 i1l1371 01CA  
                               i1l1363 01B6                                 i1l1451 0089  
                               i1l1611 0056                                 i1l1603 001E  
                               _RC6PPS 0F26                                 i1l1429 030B  
                               i1l1381 02C7                                 i1l1445 026D  
                               i1l1437 025F                                 i1l1373 01D0  
                               i1l1365 01B8                                 i1l1461 00A2  
                               i1l1453 008B                                 i1l1613 0059  
                               i1l1605 002A                                 i1l1391 02D4  
                               i1l1383 02CE                                 i1l1447 026F  
                               i1l1439 0264                                 i1l1367 01BC  
                               i1l1471 00F6                                 i1l1463 00A4  
                               i1l1455 008E                                 i1l1615 005E  
                               i1l1607 003C                                 i1l1377 0271  
                               i1l1385 02D0                   __size_of_disable_out 0010  
                               i1l1393 032A                                 i1l1369 01C5  
                               i1l1481 011A                                 i1l1473 00FF  
                               i1l1465 00AC                                 i1l1457 0091  
                               i1l1449 0084                                 i1l1617 0066  
                               i1l1609 0048                                 i1l1379 0276  
                               i1l1387 02D1                                 i1l1395 0320  
                               i1l1483 011D                                 i1l1475 0108  
                               i1l1467 00C3                                 i1l1459 0097  
                               _RC7PPS 0F27                                 i1l1493 02D8  
                               i1l1389 02D2                                 i1l1397 0322  
                               i1l1485 0120                                 i1l1477 010C  
                               i1l1469 00DA                                 i1l1495 02DB  
                               i1l1399 016A                                 i1l1479 0118  
                               i1l1487 0123                                 i1l1497 02DF  
                               i1l1489 0130                                 i1l1595 0006  
                               i1l1597 0009                                 i1l1599 000E  
                               _INTPPS 0E90                                 _TX1REG 011A  
                       ??_initHardware 00A3                           _turn_off_all 016A  
                       _peripheralAddr 0054                                 ___wmul 01B6  
                    i1delay@delay_time 0070                        turn_off_all@num 0076  
                               delay@i 00A3       __size_of_centerWriteToPeripheral 0010  
                            ??_initADC 00A0                              ??_init_oc 00A0  
                            ??_lightup 007B                        ?_IIC_Write_Byte 0070  
                            ??_set_clc 00A0                              ??_set_cwg 00A0  
                            ??_set_pps 00A0                       __end_of_startADC 0228  
              __end_of__initialization 0080                              ?_IIC_Stop 0070  
                       __pcstackCOMMON 0070                           __pidataBANK0 0288  
                        __end_of_delay 0241                  __end_of_set_interrupt 0320  
                 __size_of_lightIntrpt 0017                           _CWG1CON0bits 0610  
                              ??_delay 00A2                             __pbssBANK0 0020  
                           ??_IIC_Stop 0070                     __size_of_init_port 000D  
                    _initIICCenterMode 029D                             __pmaintext 013B  
                   ?_initIICCenterMode 0070                                ?___wmul 0070  
                           __pintentry 0004                             _enable_out 032A  
                  __CFG_RSTOSC$HFINT32 0000                                _CWG1DBF 060F  
                              _CWG1DBR 060E                                _CWG1PPS 0EB1  
                  ??_initIICCenterMode 00A0                   __size_of_irs_routine 0066  
                              _SP1BRGH 011C                                _SP1BRGL 011B  
                 __end_of_initHardware 020E                                _SSP2ADD 0197  
                              _SSP2BUF 0196                     __size_of_out_reset 000A  
                              i1_delay 0271              __end_of_initIICCenterMode 02B2  
                            _ADREFbits 009A                              _CLCIN2PPS 0EBD  
                            _CLCIN3PPS 0EBE                              ?_startADC 0070  
                      __size_of___wmul 001F                _centerWriteToPeripheral 02D7  
                              __ptext1 020E                                __ptext2 0228  
                              __ptext3 0193                                __ptext4 0316  
                              __ptext5 02F4                                __ptext6 01D5  
                              __ptext7 0241                                __ptext8 02E7  
                              __ptext9 033C                                _led_arr 0040  
                              _initADC 02B2                                _init_oc 033C  
                              _lightup 0084                      __end_of_init_port 02F4  
                              _set_clc 0241                                _set_cwg 01D5  
                              _set_pps 0193                           lightup@count 0055  
                            _IIC_Start 030B                                clrloop0 034B  
                 end_of_initialization 0080                                init_ram 0344  
                              initloop 0345                             _set_eusart 02F4  
                    __end_of_out_reset 032A                             ??_startADC 00A5  
                     ??_IIC_Write_Byte 0070                            ?_enable_out 0070  
                      IIC_Write_Byte@d 0070                        lightup@led_addr 005F  
                            _TRISBbits 0012                              _TRISCbits 0013  
                        ??_disable_out 0075                             ?_IIC_Start 0070  
           __size_of_initIICCenterMode 0015                      __size_of_IIC_Stop 0009  
            ??_centerWriteToPeripheral 0072                            _CLC1CONbits 0E10  
                       __end_of___wmul 01D5                  __size_of_initHardware 001B  
                          _CLC1POLbits 0E11                    start_initialization 006C  
                  __size_of_enable_out 0009                    __end_of_disable_out 02D7  
                         _initHardware 01F3                            ?_set_eusart 0070  
                             ??___wmul 0074                          ??_lightIntrpt 0075  
                          __pdataBANK0 0040                        delay@delay_time 00A0  
            initHardware@isCenterBoard 00A0                              ___latbits 0001  
                        __pcstackBANK0 0055                          __pcstackBANK1 00A0  
      __end_of_centerWriteToPeripheral 02E7                            ??_IIC_Start 0070  
                          _CWG1AS0bits 0612                            _CWG1AS1bits 0613  
                             ?i1_delay 0070                 __size_of_set_interrupt 000A  
                          _CWG1ISMbits 060D                          ??_irs_routine 0062  
                    __size_of_startADC 001A                               ?_initADC 0070  
                  __end_of_lightIntrpt 0271                               _CLC1GLS0 0E16  
                             _CLC1GLS1 0E17                               _CLC1GLS2 0E18  
                             _CLC1GLS3 0E19                               ?_init_oc 0070  
                             ?_lightup 0070            centerWriteToPeripheral@data 0071  
                             ?_set_clc 0070                               ?_set_cwg 0070  
                             ?_set_pps 0070                            _disable_out 02C7  
                       __size_of_delay 0019                    __size_of_set_eusart 000C  
                            _init_port 02E7                         ___wmul@product 0074  
                             _IIC_Stop 0333                               _LATBbits 0017  
                            clear_ram0 034A                           _recievedData 0036  
                             _PIE0bits 0716                               _PIE1bits 0717  
                        ?_turn_off_all 0076                               _PIR0bits 070C  
                             _PIR1bits 070D                               _PIR3bits 070F  
                             _SSP2CON1 019A                               _SSP2CON2 019B  
                             _SSP2STAT 0199                           ??_enable_out 0070  
                       lightup@led_val 0061                          _set_interrupt 0316  
                            _out_reset 0320                             _ADCON0bits 0093  
                    ___wmul@multiplier 0070                               _WPUBbits 0F44  
                             i1delay@i 0073                    __end_of_irs_routine 006A  
                           ?_init_port 0070                    initHardware@iicAddr 00A2  
                     __size_ofi1_delay 0017                     __end_of_enable_out 0333  
                       ??_turn_off_all 0078                            _lightIntrpt 025A  
                       ?_set_interrupt 0070                             ?_out_reset 0070  
                           _ANSELBbits 0F43                             _ANSELCbits 0F4E  
                     __size_of_initADC 0015                       __size_of_init_oc 0008  
                     __size_of_lightup 00B7                               __ptext10 01F3  
                             __ptext11 029D                               __ptext20 02C7  
                             __ptext12 02B2                               __ptext21 0271  
                             __ptext22 02D7                               __ptext14 0084  
                             __ptext23 0300                               __ptext15 016A  
                             __ptext24 0333                               __ptext16 01B6  
                             __ptext25 030B                               __ptext17 025A  
                             __ptext18 0320                               __ptext19 032A  
                     __size_of_set_clc 0019                       __size_of_set_cwg 001E  
                     __size_of_set_pps 0023                           _SSP2CON1bits 019A  
                         _SSP2CON2bits 019B                            _OSCCON1bits 088D  
                        __size_of_main 002F                             _RC1STAbits 011D  
                         ??_set_eusart 00A0                               int$flags 007E  
                             _startADC 020E                           _SSP2STATbits 0199  
                          _irs_routine 0004                             _INTCONbits 000B  
                             lightup@B 005B                               lightup@G 0059  
                             lightup@R 0057                               lightup@i 005D  
              __size_of_IIC_Write_Byte 000B                            ??_init_port 00A0  
                   __end_of_set_eusart 0300                               intlevel1 0000  
             ?_centerWriteToPeripheral 0071                             _OSCFRQbits 0893  
                      ??_set_interrupt 00A0                            ??_out_reset 0075  
centerWriteToPeripheral@peripheralAddr 0072                             _SSP2DATPPS 0EC9  
                           _SSP2CLKPPS 0EC8                   __end_of_turn_off_all 0193  
                         ?_disable_out 0070                             _TX1STAbits 011E  
